(dp0
S'cookies'
p1
(dp2
S'wxloadtime'
p3
S'1492269249'
p4
sS'webwx_data_ticket'
p5
S'gSfi6dviAWCPiskQvYBoRSgO'
p6
sS'wxuin'
p7
S'1463552906'
p8
sS'login_frequency'
p9
S'2'
p10
sS'MM_WX_NOTIFY_STATE'
p11
S'1'
p12
sS'MM_WX_SOUND_STATE'
p13
g12
sS'webwx_auth_ticket'
p14
S'CIsBEPWRiS4agAFAvhjJSRZ/7JMYq9a5qHHbHeN3P3mKoEjElChBgn5fT2sFj5e4S1j23IwsIwqmLGZYsZ4G5sfQlnvCwbSIM3SVTIGo4v1/sDt1H1xaGqX1/kX5I+wxqCbWoHPEzVAhezWkYzUphXwnEp6oXSrvUOPSIQh3jKUGBuWKQjDsG4EIdA=='
p15
sS'last_wxuin'
p16
S'1463552906'
p17
sS'webwxuvid'
p18
S'7f78cea5e782ff31a7494c46d5bd6d54ae534ad1d2a036ef7d1dde363f69678aa0fdafa7e6774c5a20ce42095c198058'
p19
sS'wxpluginkey'
p20
S'1492268583'
p21
sS'wxsid'
p22
S'lMgEdJsJ+ACcSCQm'
p23
sS'mm_lang'
p24
S'zh_CN'
p25
ssS'version'
p26
S'1.3.5'
p27
sS'storage'
p28
(dp29
S'userName'
p30
V@f5c29097711884b6af486f8baf9531fa43e946d9f8d65f0a85b0d78df8d9847d
p31
sS'lastInputUserName'
p32
NsS'memberList'
p33
ccopy_reg
_reconstructor
p34
(citchat.storage.templates
ContactList
p35
c__builtin__
list
p36
(lp37
g34
(citchat.storage.templates
User
p38
c__builtin__
dict
p39
(dp40
S'UserName'
p41
g31
sS'City'
p42
S''
p43
sS'DisplayName'
p44
g43
sS'UniFriend'
p45
I0
sS'OwnerUin'
p46
I0
sS'MemberList'
p47
g34
(g35
g36
(lp48
tp49
Rp50
I1
bsS'PYQuanPin'
p51
V
p52
sS'RemarkPYInitial'
p53
g52
sS'Uin'
p54
I1463552906
sS'AppAccountFlag'
p55
I0
sS'VerifyFlag'
p56
I0
sS'Province'
p57
g43
sS'KeyWord'
p58
g43
sS'RemarkName'
p59
g52
sS'PYInitial'
p60
g52
sS'ChatRoomId'
p61
I0
sS'HideInputBarFlag'
p62
I0
sVHeadImgFlag
p63
I1
sS'EncryChatRoomId'
p64
g43
sS'AttrStatus'
p65
I0
sS'SnsFlag'
p66
I1
sS'MemberCount'
p67
I0
sVWebWxPluginSwitch
p68
I3
sS'Alias'
p69
g43
sS'Signature'
p70
V\u306b\u3083
p71
sS'ContactFlag'
p72
I0
sS'NickName'
p73
V\u7eb8\u56e2
p74
sS'RemarkPYQuanPin'
p75
g52
sS'HeadImgUrl'
p76
V/cgi-bin/mmwebwx-bin/webwxgeticon?seq=1936999349&username=@f5c29097711884b6af486f8baf9531fa43e946d9f8d65f0a85b0d78df8d9847d&skey=@crypt_915d192c_859cf8b7c20c6eeafe0c834301ece725
p77
sS'Sex'
p78
I1
sS'StarFriend'
p79
I0
sS'Statues'
p80
I0
stp81
Rp82
I1
bag34
(g38
g39
(dp83
VUserName
p84
V@ed1663ad51e7911dbc8405286d752ce344359741c4b9cc6f1221908a0b994831
p85
sVCity
p86
V\u798f\u5dde
p87
sVSnsFlag
p88
I16
sVDisplayName
p89
g52
sVUniFriend
p90
I0
sVMemberCount
p91
I0
sVOwnerUin
p92
I0
sVMemberList
p93
g50
sVAlias
p94
g52
sVPYQuanPin
p95
VRsEnts
p96
sVSignature
p97
g52
sVRemarkPYInitial
p98
g52
sVContactFlag
p99
I3
sVUin
p100
I0
sVNickName
p101
VRsEnts
p102
sVAppAccountFlag
p103
I0
sVVerifyFlag
p104
I0
sVRemarkPYQuanPin
p105
g52
sVHeadImgUrl
p106
V/cgi-bin/mmwebwx-bin/webwxgeticon?seq=624411160&username=@ed1663ad51e7911dbc8405286d752ce344359741c4b9cc6f1221908a0b994831&skey=@crypt_915d192c_859cf8b7c20c6eeafe0c834301ece725
p107
sVKeyWord
p108
g52
sVProvince
p109
V\u798f\u5efa
p110
sVPYInitial
p111
VRSENTS
p112
sVRemarkName
p113
g52
sVIsOwner
p114
I0
sVSex
p115
I1
sVStarFriend
p116
I0
sVHideInputBarFlag
p117
I0
sVChatRoomId
p118
I0
sVEncryChatRoomId
p119
g52
sVAttrStatus
p120
I102437
sVStatues
p121
I0
stp122
Rp123
I1
bag34
(g38
g39
(dp124
VUserName
p125
V@c7a01731ea09741d510c9443e431ec2bb10719547b8b6d817de2beb881a96a37
p126
sVCity
p127
g52
sVSnsFlag
p128
I0
sVDisplayName
p129
g52
sVUniFriend
p130
I0
sVMemberCount
p131
I0
sVOwnerUin
p132
I0
sVMemberList
p133
g50
sVAlias
p134
Vjt2594838
p135
sVPYQuanPin
p136
Vjt
p137
sVSignature
p138
g52
sVRemarkPYInitial
p139
VJT
p140
sVContactFlag
p141
I3
sVUin
p142
I0
sVNickName
p143
Vjt
p144
sVAppAccountFlag
p145
I0
sVVerifyFlag
p146
I0
sVRemarkPYQuanPin
p147
Vjiangtian
p148
sVHeadImgUrl
p149
V/cgi-bin/mmwebwx-bin/webwxgeticon?seq=635102614&username=@c7a01731ea09741d510c9443e431ec2bb10719547b8b6d817de2beb881a96a37&skey=@crypt_915d192c_859cf8b7c20c6eeafe0c834301ece725
p150
sVKeyWord
p151
g52
sVProvince
p152
g52
sVPYInitial
p153
VJT
p154
sVRemarkName
p155
V\u6c5f\u5929
p156
sVIsOwner
p157
I0
sVSex
p158
I0
sVStarFriend
p159
I0
sVHideInputBarFlag
p160
I0
sVChatRoomId
p161
I0
sVEncryChatRoomId
p162
g52
sVAttrStatus
p163
I33558567
sVStatues
p164
I0
stp165
Rp166
I1
bag34
(g38
g39
(dp167
VUserName
p168
V@a78686acc3516d2240d02ca8f8085bac9c0e8d98db3a745d485e4ec95ffc88a1
p169
sVCity
p170
V\u6d77\u6dc0
p171
sVSnsFlag
p172
I1
sVDisplayName
p173
g52
sVUniFriend
p174
I0
sVMemberCount
p175
I0
sVOwnerUin
p176
I0
sVMemberList
p177
g50
sVAlias
p178
Vmzzh6547123
p179
sVPYQuanPin
p180
Vyigedian
p181
sVSignature
p182
Vwhat a huck
p183
sVRemarkPYInitial
p184
g52
sVContactFlag
p185
I3
sVUin
p186
I0
sVNickName
p187
V\u4e00\u4e2a\u70b9
p188
sVAppAccountFlag
p189
I0
sVVerifyFlag
p190
I0
sVRemarkPYQuanPin
p191
g52
sVHeadImgUrl
p192
V/cgi-bin/mmwebwx-bin/webwxgeticon?seq=642442639&username=@a78686acc3516d2240d02ca8f8085bac9c0e8d98db3a745d485e4ec95ffc88a1&skey=@crypt_915d192c_859cf8b7c20c6eeafe0c834301ece725
p193
sVKeyWord
p194
g52
sVProvince
p195
V\u5317\u4eac
p196
sVPYInitial
p197
VYGD
p198
sVRemarkName
p199
g52
sVIsOwner
p200
I0
sVSex
p201
I1
sVStarFriend
p202
I0
sVHideInputBarFlag
p203
I0
sVChatRoomId
p204
I0
sVEncryChatRoomId
p205
g52
sVAttrStatus
p206
I102501
sVStatues
p207
I0
stp208
Rp209
I1
bag34
(g38
g39
(dp210
VUserName
p211
V@daade17c5b0780f157d800459eee477ad2dbf39e0727bc5b2b3ce1c49969e43d
p212
sVCity
p213
g52
sVSnsFlag
p214
I49
sVDisplayName
p215
g52
sVUniFriend
p216
I0
sVMemberCount
p217
I0
sVOwnerUin
p218
I0
sVMemberList
p219
g50
sVAlias
p220
g52
sVPYQuanPin
p221
Vzhuzi
p222
sVSignature
p223
g52
sVRemarkPYInitial
p224
g52
sVContactFlag
p225
I1
sVUin
p226
I0
sVNickName
p227
V\u7af9\u5b50
p228
sVAppAccountFlag
p229
I0
sVVerifyFlag
p230
I0
sVRemarkPYQuanPin
p231
g52
sVHeadImgUrl
p232
V/cgi-bin/mmwebwx-bin/webwxgeticon?seq=643123305&username=@daade17c5b0780f157d800459eee477ad2dbf39e0727bc5b2b3ce1c49969e43d&skey=@crypt_915d192c_859cf8b7c20c6eeafe0c834301ece725
p233
sVKeyWord
p234
g52
sVProvince
p235
V\u5317\u4eac
p236
sVPYInitial
p237
VZZ
p238
sVRemarkName
p239
g52
sVIsOwner
p240
I0
sVSex
p241
I2
sVStarFriend
p242
I0
sVHideInputBarFlag
p243
I0
sVChatRoomId
p244
I0
sVEncryChatRoomId
p245
g52
sVAttrStatus
p246
I98405
sVStatues
p247
I0
stp248
Rp249
I1
bag34
(g38
g39
(dp250
VUserName
p251
V@7c7871ed1cbce4c59e0bde2da8aec36c0f399d8e5fd9034e9d99451e58e21106
p252
sVCity
p253
g52
sVSnsFlag
p254
I1
sVDisplayName
p255
g52
sVUniFriend
p256
I0
sVMemberCount
p257
I0
sVOwnerUin
p258
I0
sVMemberList
p259
g50
sVAlias
p260
g52
sVPYQuanPin
p261
Vwyl8899
p262
sVSignature
p263
g52
sVRemarkPYInitial
p264
VWYL
p265
sVContactFlag
p266
I3
sVUin
p267
I0
sVNickName
p268
Vwyl8899
p269
sVAppAccountFlag
p270
I0
sVVerifyFlag
p271
I0
sVRemarkPYQuanPin
p272
Vweiyilong
p273
sVHeadImgUrl
p274
V/cgi-bin/mmwebwx-bin/webwxgeticon?seq=643130492&username=@7c7871ed1cbce4c59e0bde2da8aec36c0f399d8e5fd9034e9d99451e58e21106&skey=@crypt_915d192c_859cf8b7c20c6eeafe0c834301ece725
p275
sVKeyWord
p276
g52
sVProvince
p277
g52
sVPYInitial
p278
VWYL8899
p279
sVRemarkName
p280
V\u97e6\u6bc5\u9f99
p281
sVIsOwner
p282
I0
sVSex
p283
I0
sVStarFriend
p284
I0
sVHideInputBarFlag
p285
I0
sVChatRoomId
p286
I0
sVEncryChatRoomId
p287
g52
sVAttrStatus
p288
I33689637
sVStatues
p289
I0
stp290
Rp291
I1
bag34
(g38
g39
(dp292
VUserName
p293
V@c2fc51fd685d2ac98acfec07739f38be398d3fe09ca3bf2ca6e74d2df6508f22
p294
sVCity
p295
g52
sVSnsFlag
p296
I1
sVDisplayName
p297
g52
sVUniFriend
p298
I0
sVMemberCount
p299
I0
sVOwnerUin
p300
I0
sVMemberList
p301
g50
sVAlias
p302
Vhaosoul122
p303
sVPYQuanPin
p304
VRsEnts
p305
sVSignature
p306
g52
sVRemarkPYInitial
p307
g52
sVContactFlag
p308
I1
sVUin
p309
I0
sVNickName
p310
VRsEnts
p311
sVAppAccountFlag
p312
I0
sVVerifyFlag
p313
I0
sVRemarkPYQuanPin
p314
g52
sVHeadImgUrl
p315
V/cgi-bin/mmwebwx-bin/webwxgeticon?seq=643130828&username=@c2fc51fd685d2ac98acfec07739f38be398d3fe09ca3bf2ca6e74d2df6508f22&skey=@crypt_915d192c_859cf8b7c20c6eeafe0c834301ece725
p316
sVKeyWord
p317
g52
sVProvince
p318
g52
sVPYInitial
p319
VRSENTS
p320
sVRemarkName
p321
g52
sVIsOwner
p322
I0
sVSex
p323
I0
sVStarFriend
p324
I0
sVHideInputBarFlag
p325
I0
sVChatRoomId
p326
I0
sVEncryChatRoomId
p327
g52
sVAttrStatus
p328
I33656933
sVStatues
p329
I0
stp330
Rp331
I1
bag34
(g38
g39
(dp332
VUserName
p333
V@40fd50f1da7cb581c6091b64c2abaf77
p334
sVCity
p335
g52
sVSnsFlag
p336
I49
sVDisplayName
p337
g52
sVUniFriend
p338
I0
sVMemberCount
p339
I0
sVOwnerUin
p340
I0
sVMemberList
p341
g50
sVAlias
p342
g52
sVPYQuanPin
p343
Vjue
p344
sVSignature
p345
g52
sVRemarkPYInitial
p346
VZYJ
p347
sVContactFlag
p348
I3
sVUin
p349
I0
sVNickName
p350
V\u73cf
p351
sVAppAccountFlag
p352
I0
sVVerifyFlag
p353
I0
sVRemarkPYQuanPin
p354
Vzhangyuanjue
p355
sVHeadImgUrl
p356
V/cgi-bin/mmwebwx-bin/webwxgeticon?seq=648050301&username=@40fd50f1da7cb581c6091b64c2abaf77&skey=@crypt_915d192c_859cf8b7c20c6eeafe0c834301ece725
p357
sVKeyWord
p358
Vz19
p359
sVProvince
p360
V\u5317\u4eac
p361
sVPYInitial
p362
VJ
p363
sVRemarkName
p364
V\u7ae0\u5143\u73cf
p365
sVIsOwner
p366
I0
sVSex
p367
I1
sVStarFriend
p368
I0
sVHideInputBarFlag
p369
I0
sVChatRoomId
p370
I0
sVEncryChatRoomId
p371
g52
sVAttrStatus
p372
I98407
sVStatues
p373
I0
stp374
Rp375
I1
bag34
(g38
g39
(dp376
VUserName
p377
V@5fa46a3bd183d4a396fde7a0ce24504cc3ad7006968576c3c2a9e764a826c4f9
p378
sVCity
p379
g52
sVSnsFlag
p380
I17
sVDisplayName
p381
g52
sVUniFriend
p382
I0
sVMemberCount
p383
I0
sVOwnerUin
p384
I0
sVMemberList
p385
g50
sVAlias
p386
g52
sVPYQuanPin
p387
VweihonghaoWillWei
p388
sVSignature
p389
g52
sVRemarkPYInitial
p390
VWHH
p391
sVContactFlag
p392
I3
sVUin
p393
I0
sVNickName
p394
V\u9b4f\u6d2a\u6d69_Will Wei
p395
sVAppAccountFlag
p396
I0
sVVerifyFlag
p397
I0
sVRemarkPYQuanPin
p398
Vweihonghao
p399
sVHeadImgUrl
p400
V/cgi-bin/mmwebwx-bin/webwxgeticon?seq=648057288&username=@5fa46a3bd183d4a396fde7a0ce24504cc3ad7006968576c3c2a9e764a826c4f9&skey=@crypt_915d192c_859cf8b7c20c6eeafe0c834301ece725
p401
sVKeyWord
p402
g52
sVProvince
p403
g52
sVPYInitial
p404
VWHHWILLWEI
p405
sVRemarkName
p406
V\u9b4f\u6d2a\u6d69
p407
sVIsOwner
p408
I0
sVSex
p409
I0
sVStarFriend
p410
I0
sVHideInputBarFlag
p411
I0
sVChatRoomId
p412
I0
sVEncryChatRoomId
p413
g52
sVAttrStatus
p414
I98343
sVStatues
p415
I0
stp416
Rp417
I1
bag34
(g38
g39
(dp418
VUserName
p419
V@fb41cfabad0d602195081ab1f4820a097a9ed658c71b89258164251abff0a413
p420
sVCity
p421
g52
sVSnsFlag
p422
I17
sVDisplayName
p423
g52
sVUniFriend
p424
I0
sVMemberCount
p425
I0
sVOwnerUin
p426
I0
sVMemberList
p427
g50
sVAlias
p428
VWHZ1134
p429
sVPYQuanPin
p430
Vwanghengzhi
p431
sVSignature
p432
VHere I am
p433
sVRemarkPYInitial
p434
g52
sVContactFlag
p435
I3
sVUin
p436
I0
sVNickName
p437
V\u738b\u6052\u5fd7
p438
sVAppAccountFlag
p439
I0
sVVerifyFlag
p440
I0
sVRemarkPYQuanPin
p441
g52
sVHeadImgUrl
p442
V/cgi-bin/mmwebwx-bin/webwxgeticon?seq=643133758&username=@fb41cfabad0d602195081ab1f4820a097a9ed658c71b89258164251abff0a413&skey=@crypt_915d192c_859cf8b7c20c6eeafe0c834301ece725
p443
sVKeyWord
p444
g52
sVProvince
p445
V\u5317\u4eac
p446
sVPYInitial
p447
VWHZ
p448
sVRemarkName
p449
g52
sVIsOwner
p450
I0
sVSex
p451
I1
sVStarFriend
p452
I0
sVHideInputBarFlag
p453
I0
sVChatRoomId
p454
I0
sVEncryChatRoomId
p455
g52
sVAttrStatus
p456
I33657637
sVStatues
p457
I0
stp458
Rp459
I1
bag34
(g38
g39
(dp460
VUserName
p461
V@c8ad9c39fedfd17a4132485d43fb32e6
p462
sVCity
p463
V\u6d77\u6dc0
p464
sVSnsFlag
p465
I49
sVDisplayName
p466
g52
sVUniFriend
p467
I0
sVMemberCount
p468
I0
sVOwnerUin
p469
I0
sVMemberList
p470
g50
sVAlias
p471
g52
sVPYQuanPin
p472
Vyanjingzhaisun
p473
sVSignature
p474
VSmile
p475
sVRemarkPYInitial
p476
g52
sVContactFlag
p477
I1
sVUin
p478
I0
sVNickName
p479
V\u5ef6\u9759\u658b\u5b59
p480
sVAppAccountFlag
p481
I0
sVVerifyFlag
p482
I0
sVRemarkPYQuanPin
p483
g52
sVHeadImgUrl
p484
V/cgi-bin/mmwebwx-bin/webwxgeticon?seq=651005593&username=@c8ad9c39fedfd17a4132485d43fb32e6&skey=@crypt_915d192c_859cf8b7c20c6eeafe0c834301ece725
p485
sVKeyWord
p486
Vy49
p487
sVProvince
p488
V\u5317\u4eac
p489
sVPYInitial
p490
VYJZS
p491
sVRemarkName
p492
g52
sVIsOwner
p493
I0
sVSex
p494
I1
sVStarFriend
p495
I0
sVHideInputBarFlag
p496
I0
sVChatRoomId
p497
I0
sVEncryChatRoomId
p498
g52
sVAttrStatus
p499
I33788007
sVStatues
p500
I0
stp501
Rp502
I1
bag34
(g38
g39
(dp503
VUserName
p504
V@234d322d178c265cbfc46c9100f7a0c18e6728939e3b026dead9e50bd0ea4ac3
p505
sVCity
p506
V\u4e0a\u9976
p507
sVSnsFlag
p508
I1
sVDisplayName
p509
g52
sVUniFriend
p510
I0
sVMemberCount
p511
I0
sVOwnerUin
p512
I0
sVMemberList
p513
g50
sVAlias
p514
Vwlt2578886865
p515
sVPYQuanPin
p516
Vcunxinshuihua
p517
sVSignature
p518
V\u6211\u4e0d\u662f\u5f52\u4eba\uff0c\u662f\u4e2a\u8fc7\u5ba2\u2026\u2026
p519
sVRemarkPYInitial
p520
g52
sVContactFlag
p521
I3
sVUin
p522
I0
sVNickName
p523
V\u5bf8\u5fc3\u6c34\u534e
p524
sVAppAccountFlag
p525
I0
sVVerifyFlag
p526
I0
sVRemarkPYQuanPin
p527
g52
sVHeadImgUrl
p528
V/cgi-bin/mmwebwx-bin/webwxgeticon?seq=651009251&username=@234d322d178c265cbfc46c9100f7a0c18e6728939e3b026dead9e50bd0ea4ac3&skey=@crypt_915d192c_859cf8b7c20c6eeafe0c834301ece725
p529
sVKeyWord
p530
g52
sVProvince
p531
V\u6c5f\u897f
p532
sVPYInitial
p533
VCXSH
p534
sVRemarkName
p535
g52
sVIsOwner
p536
I0
sVSex
p537
I1
sVStarFriend
p538
I0
sVHideInputBarFlag
p539
I0
sVChatRoomId
p540
I0
sVEncryChatRoomId
p541
g52
sVAttrStatus
p542
I33689701
sVStatues
p543
I0
stp544
Rp545
I1
bag34
(g38
g39
(dp546
VUserName
p547
V@2ccbf34611f6b056b4331a0ea9c02b647d6f561544efa4db1f5ebe81786c4d51
p548
sVCity
p549
V\u5927\u5e86
p550
sVSnsFlag
p551
I17
sVDisplayName
p552
g52
sVUniFriend
p553
I0
sVMemberCount
p554
I0
sVOwnerUin
p555
I0
sVMemberList
p556
g50
sVAlias
p557
g52
sVPYQuanPin
p558
Vwangmanhuajiushiyouchaichai
p559
sVSignature
p560
V\u5584\u5f85\u4ed6\u4eba\uff0c\u73cd\u7231\u81ea\u5df1\uff0c\u505a\u5e78\u798f\u7684\u5973\u4eba\uff0c\u5b89\u5eb7\uff0c\u5b89\u5fc3\u3002
p561
sVRemarkPYInitial
p562
g52
sVContactFlag
p563
I3
sVUin
p564
I0
sVNickName
p565
V\u738b\u6f2b\u534e\u5c31\u662f\u6709\u67f4\u67f4
p566
sVAppAccountFlag
p567
I0
sVVerifyFlag
p568
I0
sVRemarkPYQuanPin
p569
g52
sVHeadImgUrl
p570
V/cgi-bin/mmwebwx-bin/webwxgeticon?seq=646430298&username=@2ccbf34611f6b056b4331a0ea9c02b647d6f561544efa4db1f5ebe81786c4d51&skey=@crypt_915d192c_859cf8b7c20c6eeafe0c834301ece725
p571
sVKeyWord
p572
g52
sVProvince
p573
V\u9ed1\u9f99\u6c5f
p574
sVPYInitial
p575
VWMHJSYCC
p576
sVRemarkName
p577
g52
sVIsOwner
p578
I0
sVSex
p579
I2
sVStarFriend
p580
I0
sVHideInputBarFlag
p581
I0
sVChatRoomId
p582
I0
sVEncryChatRoomId
p583
g52
sVAttrStatus
p584
I102437
sVStatues
p585
I0
stp586
Rp587
I1
bag34
(g38
g39
(dp588
VUserName
p589
V@7285428493e63795b42ad0fb0a9e9810fc61088fd96dee88511799cf9474fc19
p590
sVCity
p591
V\u6d77\u6dc0
p592
sVSnsFlag
p593
I1
sVDisplayName
p594
g52
sVUniFriend
p595
I0
sVMemberCount
p596
I0
sVOwnerUin
p597
I0
sVMemberList
p598
g50
sVAlias
p599
g52
sVPYQuanPin
p600
Vwangyingxu
p601
sVSignature
p602
V\u7f8e\u56fd\u300a\u65f6\u4ee3\u5468\u520a\u300b2006\u5e74\u5ea6\u98ce\u4e91\u4eba\u7269
p603
sVRemarkPYInitial
p604
g52
sVContactFlag
p605
I8195
sVUin
p606
I0
sVNickName
p607
V\u738b\u8d62\u7eea
p608
sVAppAccountFlag
p609
I0
sVVerifyFlag
p610
I0
sVRemarkPYQuanPin
p611
g52
sVHeadImgUrl
p612
V/cgi-bin/mmwebwx-bin/webwxgeticon?seq=648054465&username=@7285428493e63795b42ad0fb0a9e9810fc61088fd96dee88511799cf9474fc19&skey=@crypt_915d192c_859cf8b7c20c6eeafe0c834301ece725
p613
sVKeyWord
p614
g52
sVProvince
p615
V\u5317\u4eac
p616
sVPYInitial
p617
VWYX
p618
sVRemarkName
p619
g52
sVIsOwner
p620
I0
sVSex
p621
I1
sVStarFriend
p622
I0
sVHideInputBarFlag
p623
I0
sVChatRoomId
p624
I0
sVEncryChatRoomId
p625
g52
sVAttrStatus
p626
I233573
sVStatues
p627
I0
stp628
Rp629
I1
bag34
(g38
g39
(dp630
VUserName
p631
V@4afc8aaa9e6d2ec083c85e1d2d28fb1c2e24d53f3a12506331673f5ed8dee9a2
p632
sVCity
p633
g52
sVSnsFlag
p634
I1
sVDisplayName
p635
g52
sVUniFriend
p636
I0
sVMemberCount
p637
I0
sVOwnerUin
p638
I0
sVMemberList
p639
g50
sVAlias
p640
g52
sVPYQuanPin
p641
Vshuangmacanting
p642
sVSignature
p643
g52
sVRemarkPYInitial
p644
g52
sVContactFlag
p645
I32771
sVUin
p646
I0
sVNickName
p647
V\u53cc\u9a6c\u9910\u5385
p648
sVAppAccountFlag
p649
I0
sVVerifyFlag
p650
I0
sVRemarkPYQuanPin
p651
g52
sVHeadImgUrl
p652
V/cgi-bin/mmwebwx-bin/webwxgeticon?seq=648051102&username=@4afc8aaa9e6d2ec083c85e1d2d28fb1c2e24d53f3a12506331673f5ed8dee9a2&skey=@crypt_915d192c_859cf8b7c20c6eeafe0c834301ece725
p653
sVKeyWord
p654
g52
sVProvince
p655
g52
sVPYInitial
p656
VSMCT
p657
sVRemarkName
p658
g52
sVIsOwner
p659
I0
sVSex
p660
I0
sVStarFriend
p661
I0
sVHideInputBarFlag
p662
I0
sVChatRoomId
p663
I0
sVEncryChatRoomId
p664
g52
sVAttrStatus
p665
I135205
sVStatues
p666
I0
stp667
Rp668
I1
bag34
(g38
g39
(dp669
VUserName
p670
V@a8a4ed93c64fa9d99e80b3901bbab782
p671
sVCity
p672
g52
sVSnsFlag
p673
I17
sVDisplayName
p674
g52
sVUniFriend
p675
I0
sVMemberCount
p676
I0
sVOwnerUin
p677
I0
sVMemberList
p678
g50
sVAlias
p679
g52
sVPYQuanPin
p680
Vmzero
p681
sVSignature
p682
V\u7ed9\u65f6\u5149\u4ee5\u751f\u547d\uff0c\u800c\u4e0d\u662f\u7ed9\u751f\u547d\u4ee5\u65f6\u5149\u3002
p683
sVRemarkPYInitial
p684
g52
sVContactFlag
p685
I1
sVUin
p686
I0
sVNickName
p687
Vm zero
p688
sVAppAccountFlag
p689
I0
sVVerifyFlag
p690
I0
sVRemarkPYQuanPin
p691
g52
sVHeadImgUrl
p692
V/cgi-bin/mmwebwx-bin/webwxgeticon?seq=651027255&username=@a8a4ed93c64fa9d99e80b3901bbab782&skey=@crypt_915d192c_859cf8b7c20c6eeafe0c834301ece725
p693
sVKeyWord
p694
Vlin
p695
sVProvince
p696
V\u5317\u4eac
p697
sVPYInitial
p698
VMZERO
p699
sVRemarkName
p700
g52
sVIsOwner
p701
I0
sVSex
p702
I1
sVStarFriend
p703
I0
sVHideInputBarFlag
p704
I0
sVChatRoomId
p705
I0
sVEncryChatRoomId
p706
g52
sVAttrStatus
p707
I33665127
sVStatues
p708
I0
stp709
Rp710
I1
bag34
(g38
g39
(dp711
VUserName
p712
V@e9e0e85bde153f1e53700c39e22e2e52e2b0da0f1d9a7bdb701c494fb4615d60
p713
sVCity
p714
V\u6d77\u6dc0
p715
sVSnsFlag
p716
I17
sVDisplayName
p717
g52
sVUniFriend
p718
I0
sVMemberCount
p719
I0
sVOwnerUin
p720
I0
sVMemberList
p721
g50
sVAlias
p722
g52
sVPYQuanPin
p723
Vqinghuadongbeimenshaokao
p724
sVSignature
p725
V\u6e05\u534e\u4e1c\u5317\u95e8\u70e7\u70e4<span class="emoji emoji2665"></span><span class="emoji emoji2665"></span>\u53ef\u4ee5\u9001\u9910<span class="emoji emoji2665"></span>\u8ba2\u9910\u7535\u8bdd13693333092<span class="emoji emoji2665"></span>
p726
sVRemarkPYInitial
p727
g52
sVContactFlag
p728
I3
sVUin
p729
I0
sVNickName
p730
V\u6e05\u534e\u4e1c\u5317\u95e8\u70e7\u70e4
p731
sVAppAccountFlag
p732
I0
sVVerifyFlag
p733
I0
sVRemarkPYQuanPin
p734
g52
sVHeadImgUrl
p735
V/cgi-bin/mmwebwx-bin/webwxgeticon?seq=657428339&username=@e9e0e85bde153f1e53700c39e22e2e52e2b0da0f1d9a7bdb701c494fb4615d60&skey=@crypt_915d192c_859cf8b7c20c6eeafe0c834301ece725
p736
sVKeyWord
p737
g52
sVProvince
p738
V\u5317\u4eac
p739
sVPYInitial
p740
VQHDBMSK
p741
sVRemarkName
p742
g52
sVIsOwner
p743
I0
sVSex
p744
I2
sVStarFriend
p745
I0
sVHideInputBarFlag
p746
I0
sVChatRoomId
p747
I0
sVEncryChatRoomId
p748
g52
sVAttrStatus
p749
I20701
sVStatues
p750
I0
stp751
Rp752
I1
bag34
(g38
g39
(dp753
VUserName
p754
V@c2ab6a0bbf5b58414d4075ed49b4b8ef3b6d0f4cb25c9c7d54dd005c8000d94f
p755
sVCity
p756
g52
sVSnsFlag
p757
I17
sVDisplayName
p758
g52
sVUniFriend
p759
I0
sVMemberCount
p760
I0
sVOwnerUin
p761
I0
sVMemberList
p762
g50
sVAlias
p763
Vytl13508111107
p764
sVPYQuanPin
p765
Vtianlong
p766
sVSignature
p767
g52
sVRemarkPYInitial
p768
g52
sVContactFlag
p769
I1
sVUin
p770
I0
sVNickName
p771
V\u5929\u9f99
p772
sVAppAccountFlag
p773
I0
sVVerifyFlag
p774
I0
sVRemarkPYQuanPin
p775
g52
sVHeadImgUrl
p776
V/cgi-bin/mmwebwx-bin/webwxgeticon?seq=657433333&username=@c2ab6a0bbf5b58414d4075ed49b4b8ef3b6d0f4cb25c9c7d54dd005c8000d94f&skey=@crypt_915d192c_859cf8b7c20c6eeafe0c834301ece725
p777
sVKeyWord
p778
g52
sVProvince
p779
g52
sVPYInitial
p780
VTL
p781
sVRemarkName
p782
g52
sVIsOwner
p783
I0
sVSex
p784
I1
sVStarFriend
p785
I0
sVHideInputBarFlag
p786
I0
sVChatRoomId
p787
I0
sVEncryChatRoomId
p788
g52
sVAttrStatus
p789
I37847143
sVStatues
p790
I0
stp791
Rp792
I1
bag34
(g38
g39
(dp793
VUserName
p794
V@4ad696d0d9d015e5989e61d35504e2673659ab3e2e5e382a3820c39be757cc78
p795
sVCity
p796
V\u6d77\u6dc0
p797
sVSnsFlag
p798
I17
sVDisplayName
p799
g52
sVUniFriend
p800
I0
sVMemberCount
p801
I0
sVOwnerUin
p802
I0
sVMemberList
p803
g50
sVAlias
p804
Vnbajiaoshi
p805
sVPYQuanPin
p806
Vluyuzuijinyanchiyoudiangao
p807
sVSignature
p808
g52
sVRemarkPYInitial
p809
g52
sVContactFlag
p810
I3
sVUin
p811
I0
sVNickName
p812
V\u9646\u79b9\u6700\u8fd1\u5ef6\u8fdf\u6709\u70b9\u9ad8
p813
sVAppAccountFlag
p814
I0
sVVerifyFlag
p815
I0
sVRemarkPYQuanPin
p816
g52
sVHeadImgUrl
p817
V/cgi-bin/mmwebwx-bin/webwxgeticon?seq=657433597&username=@4ad696d0d9d015e5989e61d35504e2673659ab3e2e5e382a3820c39be757cc78&skey=@crypt_915d192c_859cf8b7c20c6eeafe0c834301ece725
p818
sVKeyWord
p819
g52
sVProvince
p820
V\u5317\u4eac
p821
sVPYInitial
p822
VLYZJYCYDG
p823
sVRemarkName
p824
g52
sVIsOwner
p825
I0
sVSex
p826
I1
sVStarFriend
p827
I0
sVHideInputBarFlag
p828
I0
sVChatRoomId
p829
I0
sVEncryChatRoomId
p830
g52
sVAttrStatus
p831
I33658983
sVStatues
p832
I0
stp833
Rp834
I1
bag34
(g38
g39
(dp835
VUserName
p836
V@3665b47ac3687ce38a16a43502b33b387644dd75e90996fdc95a3331cd32a2d4
p837
sVCity
p838
V\u6d77\u6dc0
p839
sVSnsFlag
p840
I17
sVDisplayName
p841
g52
sVUniFriend
p842
I0
sVMemberCount
p843
I0
sVOwnerUin
p844
I0
sVMemberList
p845
g50
sVAlias
p846
Vthy892698604
p847
sVPYQuanPin
p848
VtonghaoyueCynthia
p849
sVSignature
p850
V\u5982\u4f55\u4e34\u7693\u9b44\uff0c\u4e0d\u89c1\u6708\u4e2d\u4eba
p851
sVRemarkPYInitial
p852
g52
sVContactFlag
p853
I3
sVUin
p854
I0
sVNickName
p855
V\u7ae5\u7693\u73a5Cynthia
p856
sVAppAccountFlag
p857
I0
sVVerifyFlag
p858
I0
sVRemarkPYQuanPin
p859
g52
sVHeadImgUrl
p860
V/cgi-bin/mmwebwx-bin/webwxgeticon?seq=657437426&username=@3665b47ac3687ce38a16a43502b33b387644dd75e90996fdc95a3331cd32a2d4&skey=@crypt_915d192c_859cf8b7c20c6eeafe0c834301ece725
p861
sVKeyWord
p862
g52
sVProvince
p863
V\u5317\u4eac
p864
sVPYInitial
p865
VTHYCYNTHIA
p866
sVRemarkName
p867
g52
sVIsOwner
p868
I0
sVSex
p869
I2
sVStarFriend
p870
I0
sVHideInputBarFlag
p871
I0
sVChatRoomId
p872
I0
sVEncryChatRoomId
p873
g52
sVAttrStatus
p874
I98913
sVStatues
p875
I0
stp876
Rp877
I1
bag34
(g38
g39
(dp878
VUserName
p879
V@ea6631ae1815e6b6848382cefcf25f2340fa7e9aa2080925c19ab8b1e4240298
p880
sVCity
p881
g52
sVSnsFlag
p882
I17
sVDisplayName
p883
g52
sVUniFriend
p884
I0
sVMemberCount
p885
I0
sVOwnerUin
p886
I0
sVMemberList
p887
g50
sVAlias
p888
Vllb1518
p889
sVPYQuanPin
p890
Vluoxiaobao
p891
sVSignature
p892
V\u6843\u82b1\u4f9d\u65e7\u7b11\u6625\u98ce\u3002
p893
sVRemarkPYInitial
p894
g52
sVContactFlag
p895
I3
sVUin
p896
I0
sVNickName
p897
V\u7f57\u5c0f\u5b9d
p898
sVAppAccountFlag
p899
I0
sVVerifyFlag
p900
I0
sVRemarkPYQuanPin
p901
g52
sVHeadImgUrl
p902
V/cgi-bin/mmwebwx-bin/webwxgeticon?seq=657438064&username=@ea6631ae1815e6b6848382cefcf25f2340fa7e9aa2080925c19ab8b1e4240298&skey=@crypt_915d192c_859cf8b7c20c6eeafe0c834301ece725
p903
sVKeyWord
p904
g52
sVProvince
p905
V\u5317\u4eac
p906
sVPYInitial
p907
VLXB
p908
sVRemarkName
p909
g52
sVIsOwner
p910
I0
sVSex
p911
I2
sVStarFriend
p912
I0
sVHideInputBarFlag
p913
I0
sVChatRoomId
p914
I0
sVEncryChatRoomId
p915
g52
sVAttrStatus
p916
I232381
sVStatues
p917
I0
stp918
Rp919
I1
bag34
(g38
g39
(dp920
VUserName
p921
V@ee96546b1ba1b5827947e1fb7f04fa40e1b444fd9cb217d6c528b1f3fe1db669
p922
sVCity
p923
g52
sVSnsFlag
p924
I17
sVDisplayName
p925
g52
sVUniFriend
p926
I0
sVMemberCount
p927
I0
sVOwnerUin
p928
I0
sVMemberList
p929
g50
sVAlias
p930
Vliuxia2367
p931
sVPYQuanPin
p932
VbeijingfanyaMagicliuxia
p933
sVSignature
p934
g52
sVRemarkPYInitial
p935
g52
sVContactFlag
p936
I3
sVUin
p937
I0
sVNickName
p938
V\u5317\u4eac\u6cdb\u4e9aMagic\uff08\u5218\u971e\uff09
p939
sVAppAccountFlag
p940
I0
sVVerifyFlag
p941
I0
sVRemarkPYQuanPin
p942
g52
sVHeadImgUrl
p943
V/cgi-bin/mmwebwx-bin/webwxgeticon?seq=646440233&username=@ee96546b1ba1b5827947e1fb7f04fa40e1b444fd9cb217d6c528b1f3fe1db669&skey=@crypt_915d192c_859cf8b7c20c6eeafe0c834301ece725
p944
sVKeyWord
p945
g52
sVProvince
p946
g52
sVPYInitial
p947
VBJFYMAGICLX
p948
sVRemarkName
p949
g52
sVIsOwner
p950
I0
sVSex
p951
I0
sVStarFriend
p952
I0
sVHideInputBarFlag
p953
I0
sVChatRoomId
p954
I0
sVEncryChatRoomId
p955
g52
sVAttrStatus
p956
I132477
sVStatues
p957
I0
stp958
Rp959
I1
bag34
(g38
g39
(dp960
VUserName
p961
V@85c080d52ff55a30b249ad7e17f04682
p962
sVCity
p963
V\u5927\u8fde
p964
sVSnsFlag
p965
I1
sVDisplayName
p966
g52
sVUniFriend
p967
I0
sVMemberCount
p968
I0
sVOwnerUin
p969
I0
sVMemberList
p970
g50
sVAlias
p971
g52
sVPYQuanPin
p972
Vzhanglusong
p973
sVSignature
p974
VIt's time to even the scales.
p975
sVRemarkPYInitial
p976
g52
sVContactFlag
p977
I8195
sVUin
p978
I0
sVNickName
p979
V\u5f20\u9e7f\u9882
p980
sVAppAccountFlag
p981
I0
sVVerifyFlag
p982
I0
sVRemarkPYQuanPin
p983
g52
sVHeadImgUrl
p984
V/cgi-bin/mmwebwx-bin/webwxgeticon?seq=657439175&username=@85c080d52ff55a30b249ad7e17f04682&skey=@crypt_915d192c_859cf8b7c20c6eeafe0c834301ece725
p985
sVKeyWord
p986
Vasd
p987
sVProvince
p988
V\u8fbd\u5b81
p989
sVPYInitial
p990
VZLS
p991
sVRemarkName
p992
g52
sVIsOwner
p993
I0
sVSex
p994
I1
sVStarFriend
p995
I0
sVHideInputBarFlag
p996
I0
sVChatRoomId
p997
I0
sVEncryChatRoomId
p998
g52
sVAttrStatus
p999
I98407
sVStatues
p1000
I0
stp1001
Rp1002
I1
bag34
(g38
g39
(dp1003
VUserName
p1004
V@1e6954a4e212e337b8aa7e03ba2254e3ddc424010dddae26983d16ba61f0a009
p1005
sVCity
p1006
g52
sVSnsFlag
p1007
I1
sVDisplayName
p1008
g52
sVUniFriend
p1009
I0
sVMemberCount
p1010
I0
sVOwnerUin
p1011
I0
sVMemberList
p1012
g50
sVAlias
p1013
Vlimjcst
p1014
sVPYQuanPin
p1015
VBen
p1016
sVSignature
p1017
g52
sVRemarkPYInitial
p1018
g52
sVContactFlag
p1019
I1
sVUin
p1020
I0
sVNickName
p1021
VBen
p1022
sVAppAccountFlag
p1023
I0
sVVerifyFlag
p1024
I0
sVRemarkPYQuanPin
p1025
g52
sVHeadImgUrl
p1026
V/cgi-bin/mmwebwx-bin/webwxgeticon?seq=657439216&username=@1e6954a4e212e337b8aa7e03ba2254e3ddc424010dddae26983d16ba61f0a009&skey=@crypt_915d192c_859cf8b7c20c6eeafe0c834301ece725
p1027
sVKeyWord
p1028
g52
sVProvince
p1029
g52
sVPYInitial
p1030
VBEN
p1031
sVRemarkName
p1032
g52
sVIsOwner
p1033
I0
sVSex
p1034
I0
sVStarFriend
p1035
I0
sVHideInputBarFlag
p1036
I0
sVChatRoomId
p1037
I0
sVEncryChatRoomId
p1038
g52
sVAttrStatus
p1039
I16912677
sVStatues
p1040
I0
stp1041
Rp1042
I1
bag34
(g38
g39
(dp1043
VUserName
p1044
V@17be5b3e91bb21c9f32ddb96f1f6a31fbd9fc04c5e0dd8c432d8ec6123ad67f2
p1045
sVCity
p1046
g52
sVSnsFlag
p1047
I1
sVDisplayName
p1048
g52
sVUniFriend
p1049
I0
sVMemberCount
p1050
I0
sVOwnerUin
p1051
I0
sVMemberList
p1052
g50
sVAlias
p1053
Vydlxgjf
p1054
sVPYQuanPin
p1055
Vyudaolonghagaijiaofan
p1056
sVSignature
p1057
V\u5fae\u4fe1\u8ba2\u9910\u3002
p1058
sVRemarkPYInitial
p1059
g52
sVContactFlag
p1060
I3
sVUin
p1061
I0
sVNickName
p1062
V\u9047\u5230\u9f99\u867e\u76d6\u6d47\u996d
p1063
sVAppAccountFlag
p1064
I0
sVVerifyFlag
p1065
I0
sVRemarkPYQuanPin
p1066
g52
sVHeadImgUrl
p1067
V/cgi-bin/mmwebwx-bin/webwxgeticon?seq=642442471&username=@17be5b3e91bb21c9f32ddb96f1f6a31fbd9fc04c5e0dd8c432d8ec6123ad67f2&skey=@crypt_915d192c_859cf8b7c20c6eeafe0c834301ece725
p1068
sVKeyWord
p1069
g52
sVProvince
p1070
g52
sVPYInitial
p1071
VYDLHGJF
p1072
sVRemarkName
p1073
g52
sVIsOwner
p1074
I0
sVSex
p1075
I0
sVStarFriend
p1076
I0
sVHideInputBarFlag
p1077
I0
sVChatRoomId
p1078
I0
sVEncryChatRoomId
p1079
g52
sVAttrStatus
p1080
I102693
sVStatues
p1081
I0
stp1082
Rp1083
I1
bag34
(g38
g39
(dp1084
VUserName
p1085
V@98e22535cc831a12a9d635d94a993ef676e78210bc974e87df08c9e3cd6493cb
p1086
sVCity
p1087
V\u8861\u9633
p1088
sVSnsFlag
p1089
I17
sVDisplayName
p1090
g52
sVUniFriend
p1091
I0
sVMemberCount
p1092
I0
sVOwnerUin
p1093
I0
sVMemberList
p1094
g50
sVAlias
p1095
Vpengtianyi33
p1096
sVPYQuanPin
p1097
Vpengtianyi
p1098
sVSignature
p1099
V\u65e2\u770b\u5929\u4e0b\uff0c\u4e5f\u770b\u811a\u4e0b
p1100
sVRemarkPYInitial
p1101
g52
sVContactFlag
p1102
I3
sVUin
p1103
I0
sVNickName
p1104
V\u5f6d\u5929\u7ffc
p1105
sVAppAccountFlag
p1106
I0
sVVerifyFlag
p1107
I0
sVRemarkPYQuanPin
p1108
g52
sVHeadImgUrl
p1109
V/cgi-bin/mmwebwx-bin/webwxgeticon?seq=657440500&username=@98e22535cc831a12a9d635d94a993ef676e78210bc974e87df08c9e3cd6493cb&skey=@crypt_915d192c_859cf8b7c20c6eeafe0c834301ece725
p1110
sVKeyWord
p1111
g52
sVProvince
p1112
V\u6e56\u5357
p1113
sVPYInitial
p1114
VPTY
p1115
sVRemarkName
p1116
g52
sVIsOwner
p1117
I0
sVSex
p1118
I1
sVStarFriend
p1119
I0
sVHideInputBarFlag
p1120
I0
sVChatRoomId
p1121
I0
sVEncryChatRoomId
p1122
g52
sVAttrStatus
p1123
I102501
sVStatues
p1124
I0
stp1125
Rp1126
I1
bag34
(g38
g39
(dp1127
VUserName
p1128
V@fe8affd498352f6adc2162ddcaafd4e71ce58c980fd351db26865ece1b16b8c2
p1129
sVCity
p1130
V\u5357\u901a
p1131
sVSnsFlag
p1132
I17
sVDisplayName
p1133
g52
sVUniFriend
p1134
I0
sVMemberCount
p1135
I0
sVOwnerUin
p1136
I0
sVMemberList
p1137
g50
sVAlias
p1138
Vshaoyunqiu2014
p1139
sVPYQuanPin
p1140
Vshaoyunqiu
p1141
sVSignature
p1142
V\u304a\u5143\u6c17<span class="emoji emoji263a"></span>\ufe0f
p1143
sVRemarkPYInitial
p1144
g52
sVContactFlag
p1145
I3
sVUin
p1146
I0
sVNickName
p1147
V\u90b5\u97f5\u79cb
p1148
sVAppAccountFlag
p1149
I0
sVVerifyFlag
p1150
I0
sVRemarkPYQuanPin
p1151
g52
sVHeadImgUrl
p1152
V/cgi-bin/mmwebwx-bin/webwxgeticon?seq=657441936&username=@fe8affd498352f6adc2162ddcaafd4e71ce58c980fd351db26865ece1b16b8c2&skey=@crypt_915d192c_859cf8b7c20c6eeafe0c834301ece725
p1153
sVKeyWord
p1154
g52
sVProvince
p1155
V\u6c5f\u82cf
p1156
sVPYInitial
p1157
VSYQ
p1158
sVRemarkName
p1159
g52
sVIsOwner
p1160
I0
sVSex
p1161
I2
sVStarFriend
p1162
I0
sVHideInputBarFlag
p1163
I0
sVChatRoomId
p1164
I0
sVEncryChatRoomId
p1165
g52
sVAttrStatus
p1166
I4292645
sVStatues
p1167
I0
stp1168
Rp1169
I1
bag34
(g38
g39
(dp1170
VUserName
p1171
V@a9edc2c08a0f0346063b1b9699949d51
p1172
sVCity
p1173
V\u6d77\u6dc0
p1174
sVSnsFlag
p1175
I17
sVDisplayName
p1176
g52
sVUniFriend
p1177
I0
sVMemberCount
p1178
I0
sVOwnerUin
p1179
I0
sVMemberList
p1180
g50
sVAlias
p1181
g52
sVPYQuanPin
p1182
Vhshark
p1183
sVSignature
p1184
g52
sVRemarkPYInitial
p1185
g52
sVContactFlag
p1186
I3
sVUin
p1187
I0
sVNickName
p1188
Vhshark
p1189
sVAppAccountFlag
p1190
I0
sVVerifyFlag
p1191
I0
sVRemarkPYQuanPin
p1192
g52
sVHeadImgUrl
p1193
V/cgi-bin/mmwebwx-bin/webwxgeticon?seq=657421582&username=@a9edc2c08a0f0346063b1b9699949d51&skey=@crypt_915d192c_859cf8b7c20c6eeafe0c834301ece725
p1194
sVKeyWord
p1195
Vhsh
p1196
sVProvince
p1197
V\u5317\u4eac
p1198
sVPYInitial
p1199
VHSHARK
p1200
sVRemarkName
p1201
g52
sVIsOwner
p1202
I0
sVSex
p1203
I1
sVStarFriend
p1204
I0
sVHideInputBarFlag
p1205
I0
sVChatRoomId
p1206
I0
sVEncryChatRoomId
p1207
g52
sVAttrStatus
p1208
I33673319
sVStatues
p1209
I0
stp1210
Rp1211
I1
bag34
(g38
g39
(dp1212
VUserName
p1213
V@a88f6233211d4439c38e9e118bcede74f3a47fbd8b99c1b6578c0c898a168876
p1214
sVCity
p1215
V\u6d77\u6dc0
p1216
sVSnsFlag
p1217
I49
sVDisplayName
p1218
g52
sVUniFriend
p1219
I0
sVMemberCount
p1220
I0
sVOwnerUin
p1221
I0
sVMemberList
p1222
g50
sVAlias
p1223
VluyunfeiAC
p1224
sVPYQuanPin
p1225
VLouisEX
p1226
sVSignature
p1227
V\u5148\u751f\u8bf4\u8981\u8003\u529f\u540d\u5c31\u5f97\u8bfb\u4e66\u7834\u4e07\u5377\uff0c\u6211\u5374\u53ea\u60f3\u548c\u4f60\u8d81\u597d\u6625\u5149\u653e\u7eb8\u9e22\u3002
p1228
sVRemarkPYInitial
p1229
g52
sVContactFlag
p1230
I3
sVUin
p1231
I0
sVNickName
p1232
VLouisEX
p1233
sVAppAccountFlag
p1234
I0
sVVerifyFlag
p1235
I0
sVRemarkPYQuanPin
p1236
g52
sVHeadImgUrl
p1237
V/cgi-bin/mmwebwx-bin/webwxgeticon?seq=657443175&username=@a88f6233211d4439c38e9e118bcede74f3a47fbd8b99c1b6578c0c898a168876&skey=@crypt_915d192c_859cf8b7c20c6eeafe0c834301ece725
p1238
sVKeyWord
p1239
g52
sVProvince
p1240
V\u5317\u4eac
p1241
sVPYInitial
p1242
VLOUISEX
p1243
sVRemarkName
p1244
g52
sVIsOwner
p1245
I0
sVSex
p1246
I1
sVStarFriend
p1247
I0
sVHideInputBarFlag
p1248
I0
sVChatRoomId
p1249
I0
sVEncryChatRoomId
p1250
g52
sVAttrStatus
p1251
I33656869
sVStatues
p1252
I0
stp1253
Rp1254
I1
bag34
(g38
g39
(dp1255
VUserName
p1256
V@9e36143f71c86831daf219a7174bc6f22efb1da012d878a44e93e866c2991f9b
p1257
sVCity
p1258
V\u6d77\u6dc0
p1259
sVSnsFlag
p1260
I17
sVDisplayName
p1261
g52
sVUniFriend
p1262
I0
sVMemberCount
p1263
I0
sVOwnerUin
p1264
I0
sVMemberList
p1265
g50
sVAlias
p1266
VPM1087-9779
p1267
sVPYQuanPin
p1268
Vyangming
p1269
sVSignature
p1270
V\u6240\u89c1\u7684\u662f\u6682\u65f6\uff0c\u6240\u672a\u89c1\u7684\u662f\u6c38\u8fdc\u7684\uff01
p1271
sVRemarkPYInitial
p1272
g52
sVContactFlag
p1273
I3
sVUin
p1274
I0
sVNickName
p1275
V\u6768\u660e
p1276
sVAppAccountFlag
p1277
I0
sVVerifyFlag
p1278
I0
sVRemarkPYQuanPin
p1279
g52
sVHeadImgUrl
p1280
V/cgi-bin/mmwebwx-bin/webwxgeticon?seq=663581311&username=@9e36143f71c86831daf219a7174bc6f22efb1da012d878a44e93e866c2991f9b&skey=@crypt_915d192c_859cf8b7c20c6eeafe0c834301ece725
p1281
sVKeyWord
p1282
g52
sVProvince
p1283
V\u5317\u4eac
p1284
sVPYInitial
p1285
VYM
p1286
sVRemarkName
p1287
g52
sVIsOwner
p1288
I0
sVSex
p1289
I1
sVStarFriend
p1290
I0
sVHideInputBarFlag
p1291
I0
sVChatRoomId
p1292
I0
sVEncryChatRoomId
p1293
g52
sVAttrStatus
p1294
I4133
sVStatues
p1295
I0
stp1296
Rp1297
I1
bag34
(g38
g39
(dp1298
VUserName
p1299
V@7ab0d6bdc7a060ebc45543a468632c3ec90fed1fbdcfdfb91bee85a10efd6895
p1300
sVCity
p1301
V\u6d77\u6dc0
p1302
sVSnsFlag
p1303
I1
sVDisplayName
p1304
g52
sVUniFriend
p1305
I0
sVMemberCount
p1306
I0
sVOwnerUin
p1307
I0
sVMemberList
p1308
g50
sVAlias
p1309
Vdplltwl
p1310
sVPYQuanPin
p1311
Vtwl
p1312
sVSignature
p1313
V\u8fd9\u4e2a\u4eba\u5f88\u6bd2\u820c\u2026\u2026
p1314
sVRemarkPYInitial
p1315
VTWL
p1316
sVContactFlag
p1317
I3
sVUin
p1318
I0
sVNickName
p1319
Vtwl
p1320
sVAppAccountFlag
p1321
I0
sVVerifyFlag
p1322
I0
sVRemarkPYQuanPin
p1323
Vtianwenlong
p1324
sVHeadImgUrl
p1325
V/cgi-bin/mmwebwx-bin/webwxgeticon?seq=663581434&username=@7ab0d6bdc7a060ebc45543a468632c3ec90fed1fbdcfdfb91bee85a10efd6895&skey=@crypt_915d192c_859cf8b7c20c6eeafe0c834301ece725
p1326
sVKeyWord
p1327
g52
sVProvince
p1328
V\u5317\u4eac
p1329
sVPYInitial
p1330
VTWL
p1331
sVRemarkName
p1332
V\u7530\u6587\u9f99
p1333
sVIsOwner
p1334
I0
sVSex
p1335
I1
sVStarFriend
p1336
I0
sVHideInputBarFlag
p1337
I0
sVChatRoomId
p1338
I0
sVEncryChatRoomId
p1339
g52
sVAttrStatus
p1340
I4296743
sVStatues
p1341
I0
stp1342
Rp1343
I1
bag34
(g38
g39
(dp1344
VUserName
p1345
V@326d940d4269b781d12e5e215e4abf08
p1346
sVCity
p1347
g52
sVSnsFlag
p1348
I17
sVDisplayName
p1349
g52
sVUniFriend
p1350
I0
sVMemberCount
p1351
I0
sVOwnerUin
p1352
I0
sVMemberList
p1353
g50
sVAlias
p1354
g52
sVPYQuanPin
p1355
Vhzc
p1356
sVSignature
p1357
VTime flies.
p1358
sVRemarkPYInitial
p1359
g52
sVContactFlag
p1360
I8195
sVUin
p1361
I0
sVNickName
p1362
Vhzc
p1363
sVAppAccountFlag
p1364
I0
sVVerifyFlag
p1365
I0
sVRemarkPYQuanPin
p1366
g52
sVHeadImgUrl
p1367
V/cgi-bin/mmwebwx-bin/webwxgeticon?seq=663581454&username=@326d940d4269b781d12e5e215e4abf08&skey=@crypt_915d192c_859cf8b7c20c6eeafe0c834301ece725
p1368
sVKeyWord
p1369
Vran
p1370
sVProvince
p1371
V\u5317\u4eac
p1372
sVPYInitial
p1373
VHZC
p1374
sVRemarkName
p1375
g52
sVIsOwner
p1376
I0
sVSex
p1377
I1
sVStarFriend
p1378
I0
sVHideInputBarFlag
p1379
I0
sVChatRoomId
p1380
I0
sVEncryChatRoomId
p1381
g52
sVAttrStatus
p1382
I50434087
sVStatues
p1383
I0
stp1384
Rp1385
I1
bag34
(g38
g39
(dp1386
VUserName
p1387
V@da677ed431c5abb4c333b91eb60e1e854228c06a76f82cfa5f5be63ba01c614d
p1388
sVCity
p1389
V\u6d77\u6dc0
p1390
sVSnsFlag
p1391
I17
sVDisplayName
p1392
g52
sVUniFriend
p1393
I0
sVMemberCount
p1394
I0
sVOwnerUin
p1395
I0
sVMemberList
p1396
g50
sVAlias
p1397
Vjinzxlala
p1398
sVPYQuanPin
p1399
Vyuexiaomiao
p1400
sVSignature
p1401
g52
sVRemarkPYInitial
p1402
g52
sVContactFlag
p1403
I65539
sVUin
p1404
I0
sVNickName
p1405
V\u4e50\u5c0f\u55b5
p1406
sVAppAccountFlag
p1407
I0
sVVerifyFlag
p1408
I0
sVRemarkPYQuanPin
p1409
g52
sVHeadImgUrl
p1410
V/cgi-bin/mmwebwx-bin/webwxgeticon?seq=643125254&username=@da677ed431c5abb4c333b91eb60e1e854228c06a76f82cfa5f5be63ba01c614d&skey=@crypt_915d192c_859cf8b7c20c6eeafe0c834301ece725
p1411
sVKeyWord
p1412
g52
sVProvince
p1413
V\u5317\u4eac
p1414
sVPYInitial
p1415
VYXM
p1416
sVRemarkName
p1417
g52
sVIsOwner
p1418
I0
sVSex
p1419
I1
sVStarFriend
p1420
I0
sVHideInputBarFlag
p1421
I0
sVChatRoomId
p1422
I0
sVEncryChatRoomId
p1423
g52
sVAttrStatus
p1424
I33656871
sVStatues
p1425
I0
stp1426
Rp1427
I1
bag34
(g38
g39
(dp1428
VUserName
p1429
V@5fa79ff7b393c11ab0543bec388c2257b786752e8754876c843c0e093eaedab7
p1430
sVCity
p1431
g52
sVSnsFlag
p1432
I17
sVDisplayName
p1433
g52
sVUniFriend
p1434
I0
sVMemberCount
p1435
I0
sVOwnerUin
p1436
I0
sVMemberList
p1437
g50
sVAlias
p1438
VBrisingr32
p1439
sVPYQuanPin
p1440
Vwangpeng
p1441
sVSignature
p1442
V\u867d\u5343\u4e07\u4eba\u543e\u5f80\u77e3
p1443
sVRemarkPYInitial
p1444
g52
sVContactFlag
p1445
I1
sVUin
p1446
I0
sVNickName
p1447
V\u738b\u6f8e
p1448
sVAppAccountFlag
p1449
I0
sVVerifyFlag
p1450
I0
sVRemarkPYQuanPin
p1451
g52
sVHeadImgUrl
p1452
V/cgi-bin/mmwebwx-bin/webwxgeticon?seq=657442039&username=@5fa79ff7b393c11ab0543bec388c2257b786752e8754876c843c0e093eaedab7&skey=@crypt_915d192c_859cf8b7c20c6eeafe0c834301ece725
p1453
sVKeyWord
p1454
g52
sVProvince
p1455
V\u5317\u4eac
p1456
sVPYInitial
p1457
VWP
p1458
sVRemarkName
p1459
g52
sVIsOwner
p1460
I0
sVSex
p1461
I1
sVStarFriend
p1462
I0
sVHideInputBarFlag
p1463
I0
sVChatRoomId
p1464
I0
sVEncryChatRoomId
p1465
g52
sVAttrStatus
p1466
I4427877
sVStatues
p1467
I0
stp1468
Rp1469
I1
bag34
(g38
g39
(dp1470
VUserName
p1471
V@fab9184a9b25726d594479b5a55b269c48fbf162dd05b550a49f6a31ce8aa8bd
p1472
sVCity
p1473
g52
sVSnsFlag
p1474
I1
sVDisplayName
p1475
g52
sVUniFriend
p1476
I0
sVMemberCount
p1477
I0
sVOwnerUin
p1478
I0
sVMemberList
p1479
g50
sVAlias
p1480
Vhuangjh14_THU
p1481
sVPYQuanPin
p1482
Vhuangjiahui
p1483
sVSignature
p1484
g52
sVRemarkPYInitial
p1485
g52
sVContactFlag
p1486
I3
sVUin
p1487
I0
sVNickName
p1488
V\u9ec4\u5bb6\u6656
p1489
sVAppAccountFlag
p1490
I0
sVVerifyFlag
p1491
I0
sVRemarkPYQuanPin
p1492
g52
sVHeadImgUrl
p1493
V/cgi-bin/mmwebwx-bin/webwxgeticon?seq=663584050&username=@fab9184a9b25726d594479b5a55b269c48fbf162dd05b550a49f6a31ce8aa8bd&skey=@crypt_915d192c_859cf8b7c20c6eeafe0c834301ece725
p1494
sVKeyWord
p1495
g52
sVProvince
p1496
g52
sVPYInitial
p1497
VHJH
p1498
sVRemarkName
p1499
g52
sVIsOwner
p1500
I0
sVSex
p1501
I1
sVStarFriend
p1502
I0
sVHideInputBarFlag
p1503
I0
sVChatRoomId
p1504
I0
sVEncryChatRoomId
p1505
g52
sVAttrStatus
p1506
I4428389
sVStatues
p1507
I0
stp1508
Rp1509
I1
bag34
(g38
g39
(dp1510
VUserName
p1511
V@ef4ecf47f32b761ebc3be67c35a8a6b4
p1512
sVCity
p1513
g52
sVSnsFlag
p1514
I49
sVDisplayName
p1515
g52
sVUniFriend
p1516
I0
sVMemberCount
p1517
I0
sVOwnerUin
p1518
I0
sVMemberList
p1519
g50
sVAlias
p1520
Vqmzy11
p1521
sVPYQuanPin
p1522
Vqingmuzheye
p1523
sVSignature
p1524
V\u6e05\u83ef\u5927\u5b66 \u56fd\u969b\u95a2\u4fc2\u7814\u7a76\u751f| \u672a\u6765\u52a8\u6f2b&amp;\u6e38\u620f\u6280\u672f\u56e2\u961f\u2014\u7406\u4e8b
p1525
sVRemarkPYInitial
p1526
VQMWLDM
p1527
sVContactFlag
p1528
I3
sVUin
p1529
I0
sVNickName
p1530
V\u9752\u6728\u54f2\u4e5f
p1531
sVAppAccountFlag
p1532
I0
sVVerifyFlag
p1533
I0
sVRemarkPYQuanPin
p1534
Vqingmuweilaidongman
p1535
sVHeadImgUrl
p1536
V/cgi-bin/mmwebwx-bin/webwxgeticon?seq=663586334&username=@ef4ecf47f32b761ebc3be67c35a8a6b4&skey=@crypt_915d192c_859cf8b7c20c6eeafe0c834301ece725
p1537
sVKeyWord
p1538
Va36
p1539
sVProvince
p1540
VSaitama
p1541
sVPYInitial
p1542
VQMZY
p1543
sVRemarkName
p1544
V\u9752\u6728\uff5e\u672a\u6765\u52a8\u6f2b
p1545
sVIsOwner
p1546
I0
sVSex
p1547
I1
sVStarFriend
p1548
I0
sVHideInputBarFlag
p1549
I0
sVChatRoomId
p1550
I0
sVEncryChatRoomId
p1551
g52
sVAttrStatus
p1552
I104231
sVStatues
p1553
I0
stp1554
Rp1555
I1
bag34
(g38
g39
(dp1556
VUserName
p1557
V@c6500d4788cc48e55af62ffbf9a91cd1805156cc444936bf2be1f38aecb46b56
p1558
sVCity
p1559
g52
sVSnsFlag
p1560
I1
sVDisplayName
p1561
g52
sVUniFriend
p1562
I0
sVMemberCount
p1563
I0
sVOwnerUin
p1564
I0
sVMemberList
p1565
g50
sVAlias
p1566
Veverpossibleever
p1567
sVPYQuanPin
p1568
Vzhenshibuhaoyisaia
p1569
sVSignature
p1570
g52
sVRemarkPYInitial
p1571
g52
sVContactFlag
p1572
I8193
sVUin
p1573
I0
sVNickName
p1574
V\u771f\u662f\u4e0d\u597d\u610f\u601d\u554a
p1575
sVAppAccountFlag
p1576
I0
sVVerifyFlag
p1577
I0
sVRemarkPYQuanPin
p1578
g52
sVHeadImgUrl
p1579
V/cgi-bin/mmwebwx-bin/webwxgeticon?seq=663586467&username=@c6500d4788cc48e55af62ffbf9a91cd1805156cc444936bf2be1f38aecb46b56&skey=@crypt_915d192c_859cf8b7c20c6eeafe0c834301ece725
p1580
sVKeyWord
p1581
g52
sVProvince
p1582
g52
sVPYInitial
p1583
VZSBHYSA
p1584
sVRemarkName
p1585
g52
sVIsOwner
p1586
I0
sVSex
p1587
I0
sVStarFriend
p1588
I0
sVHideInputBarFlag
p1589
I0
sVChatRoomId
p1590
I0
sVEncryChatRoomId
p1591
g52
sVAttrStatus
p1592
I33657341
sVStatues
p1593
I0
stp1594
Rp1595
I1
bag34
(g38
g39
(dp1596
VUserName
p1597
V@99844986fb949042b069f903514444b9fae832672b5a3f3f52ec29fd2114a2ee
p1598
sVCity
p1599
V\u6d77\u6dc0
p1600
sVSnsFlag
p1601
I17
sVDisplayName
p1602
g52
sVUniFriend
p1603
I0
sVMemberCount
p1604
I0
sVOwnerUin
p1605
I0
sVMemberList
p1606
g50
sVAlias
p1607
Vwcy17888802343
p1608
sVPYQuanPin
p1609
Vwangchenyang
p1610
sVSignature
p1611
g52
sVRemarkPYInitial
p1612
g52
sVContactFlag
p1613
I8195
sVUin
p1614
I0
sVNickName
p1615
V\u738b\u6668\u9633
p1616
sVAppAccountFlag
p1617
I0
sVVerifyFlag
p1618
I0
sVRemarkPYQuanPin
p1619
g52
sVHeadImgUrl
p1620
V/cgi-bin/mmwebwx-bin/webwxgeticon?seq=657440532&username=@99844986fb949042b069f903514444b9fae832672b5a3f3f52ec29fd2114a2ee&skey=@crypt_915d192c_859cf8b7c20c6eeafe0c834301ece725
p1621
sVKeyWord
p1622
g52
sVProvince
p1623
V\u5317\u4eac
p1624
sVPYInitial
p1625
VWCY
p1626
sVRemarkName
p1627
g52
sVIsOwner
p1628
I0
sVSex
p1629
I1
sVStarFriend
p1630
I0
sVHideInputBarFlag
p1631
I0
sVChatRoomId
p1632
I0
sVEncryChatRoomId
p1633
g52
sVAttrStatus
p1634
I102501
sVStatues
p1635
I0
stp1636
Rp1637
I1
bag34
(g38
g39
(dp1638
VUserName
p1639
V@0e8b21c103287a2790635c7af3a30358bdee9e0df1cb82a6e58512f82a000f46
p1640
sVCity
p1641
g52
sVSnsFlag
p1642
I1
sVDisplayName
p1643
g52
sVUniFriend
p1644
I0
sVMemberCount
p1645
I0
sVOwnerUin
p1646
I0
sVMemberList
p1647
g50
sVAlias
p1648
Vjsunapher
p1649
sVPYQuanPin
p1650
Vxuzina
p1651
sVSignature
p1652
g52
sVRemarkPYInitial
p1653
VXZN
p1654
sVContactFlag
p1655
I3
sVUin
p1656
I0
sVNickName
p1657
V\u5f90\u5b50\u5357
p1658
sVAppAccountFlag
p1659
I0
sVVerifyFlag
p1660
I0
sVRemarkPYQuanPin
p1661
Vxuzina
p1662
sVHeadImgUrl
p1663
V/cgi-bin/mmwebwx-bin/webwxgeticon?seq=622451746&username=@0e8b21c103287a2790635c7af3a30358bdee9e0df1cb82a6e58512f82a000f46&skey=@crypt_915d192c_859cf8b7c20c6eeafe0c834301ece725
p1664
sVKeyWord
p1665
g52
sVProvince
p1666
g52
sVPYInitial
p1667
VXZN
p1668
sVRemarkName
p1669
V\u5f90\u5b50\u5357
p1670
sVIsOwner
p1671
I0
sVSex
p1672
I0
sVStarFriend
p1673
I0
sVHideInputBarFlag
p1674
I0
sVChatRoomId
p1675
I0
sVEncryChatRoomId
p1676
g52
sVAttrStatus
p1677
I135205
sVStatues
p1678
I0
stp1679
Rp1680
I1
bag34
(g38
g39
(dp1681
VUserName
p1682
V@694c8eb26b36ba61cc1678926eda688f6e7c2a5de5a416b6801006646dc20fef
p1683
sVCity
p1684
g52
sVSnsFlag
p1685
I1
sVDisplayName
p1686
g52
sVUniFriend
p1687
I0
sVMemberCount
p1688
I0
sVOwnerUin
p1689
I0
sVMemberList
p1690
g50
sVAlias
p1691
Vztc17888841936
p1692
sVPYQuanPin
p1693
Vzhangtiance
p1694
sVSignature
p1695
V\u4e16\u4e8b\u6d1e\u660e\u7686\u5b66\u95ee\uff0c\u4eba\u60c5\u7ec3\u8fbe\u5373\u6587\u7ae0\u3002
p1696
sVRemarkPYInitial
p1697
g52
sVContactFlag
p1698
I1
sVUin
p1699
I0
sVNickName
p1700
V\u5f20\u5929\u7b56
p1701
sVAppAccountFlag
p1702
I0
sVVerifyFlag
p1703
I0
sVRemarkPYQuanPin
p1704
g52
sVHeadImgUrl
p1705
V/cgi-bin/mmwebwx-bin/webwxgeticon?seq=648052221&username=@694c8eb26b36ba61cc1678926eda688f6e7c2a5de5a416b6801006646dc20fef&skey=@crypt_915d192c_859cf8b7c20c6eeafe0c834301ece725
p1706
sVKeyWord
p1707
g52
sVProvince
p1708
g52
sVPYInitial
p1709
VZTC
p1710
sVRemarkName
p1711
g52
sVIsOwner
p1712
I0
sVSex
p1713
I1
sVStarFriend
p1714
I0
sVHideInputBarFlag
p1715
I0
sVChatRoomId
p1716
I0
sVEncryChatRoomId
p1717
g52
sVAttrStatus
p1718
I104485
sVStatues
p1719
I0
stp1720
Rp1721
I1
bag34
(g38
g39
(dp1722
VUserName
p1723
V@7c74b6625b404dce31812f6f526d4e13
p1724
sVCity
p1725
V\u6d77\u6dc0
p1726
sVSnsFlag
p1727
I17
sVDisplayName
p1728
g52
sVUniFriend
p1729
I0
sVMemberCount
p1730
I0
sVOwnerUin
p1731
I0
sVMemberList
p1732
g50
sVAlias
p1733
g52
sVPYQuanPin
p1734
Vmaweizhi
p1735
sVSignature
p1736
VYersterday you said tomorrow.
p1737
sVRemarkPYInitial
p1738
g52
sVContactFlag
p1739
I3
sVUin
p1740
I0
sVNickName
p1741
V\u9a6c\u4e3a\u4e4b
p1742
sVAppAccountFlag
p1743
I0
sVVerifyFlag
p1744
I0
sVRemarkPYQuanPin
p1745
g52
sVHeadImgUrl
p1746
V/cgi-bin/mmwebwx-bin/webwxgeticon?seq=643128560&username=@7c74b6625b404dce31812f6f526d4e13&skey=@crypt_915d192c_859cf8b7c20c6eeafe0c834301ece725
p1747
sVKeyWord
p1748
Vmaw
p1749
sVProvince
p1750
V\u5317\u4eac
p1751
sVPYInitial
p1752
VMWZ
p1753
sVRemarkName
p1754
g52
sVIsOwner
p1755
I0
sVSex
p1756
I1
sVStarFriend
p1757
I0
sVHideInputBarFlag
p1758
I0
sVChatRoomId
p1759
I0
sVEncryChatRoomId
p1760
g52
sVAttrStatus
p1761
I99367
sVStatues
p1762
I0
stp1763
Rp1764
I1
bag34
(g38
g39
(dp1765
VUserName
p1766
V@b8f78402752c062a65e1a3c9dde235335332f7710661e53fb3ebe32a896f61de
p1767
sVCity
p1768
V\u5927\u5e86
p1769
sVSnsFlag
p1770
I17
sVDisplayName
p1771
g52
sVUniFriend
p1772
I0
sVMemberCount
p1773
I0
sVOwnerUin
p1774
I0
sVMemberList
p1775
g50
sVAlias
p1776
g52
sVPYQuanPin
p1777
Vyubai
p1778
sVSignature
p1779
V\u4e0a\u656c\u4e0b\u548c
p1780
sVRemarkPYInitial
p1781
VSQH
p1782
sVContactFlag
p1783
I65539
sVUin
p1784
I0
sVNickName
p1785
V\u7fbd\u767d
p1786
sVAppAccountFlag
p1787
I0
sVVerifyFlag
p1788
I0
sVRemarkPYQuanPin
p1789
Vsuqinghua
p1790
sVHeadImgUrl
p1791
V/cgi-bin/mmwebwx-bin/webwxgeticon?seq=657420305&username=@b8f78402752c062a65e1a3c9dde235335332f7710661e53fb3ebe32a896f61de&skey=@crypt_915d192c_859cf8b7c20c6eeafe0c834301ece725
p1792
sVKeyWord
p1793
g52
sVProvince
p1794
V\u9ed1\u9f99\u6c5f
p1795
sVPYInitial
p1796
VYB
p1797
sVRemarkName
p1798
V\u82cf\u5e86\u534e
p1799
sVIsOwner
p1800
I0
sVSex
p1801
I0
sVStarFriend
p1802
I0
sVHideInputBarFlag
p1803
I0
sVChatRoomId
p1804
I0
sVEncryChatRoomId
p1805
g52
sVAttrStatus
p1806
I189
sVStatues
p1807
I0
stp1808
Rp1809
I1
bag34
(g38
g39
(dp1810
VUserName
p1811
V@b4017867e5979af0b6950087491576c021869997ca6d3701ed546e58ca406d4e
p1812
sVCity
p1813
V\u5357\u4eac
p1814
sVSnsFlag
p1815
I1
sVDisplayName
p1816
g52
sVUniFriend
p1817
I0
sVMemberCount
p1818
I0
sVOwnerUin
p1819
I0
sVMemberList
p1820
g50
sVAlias
p1821
Vnjuliubo
p1822
sVPYQuanPin
p1823
VDandelion
p1824
sVSignature
p1825
V\u8eab\u82e6\u5fc3\u4e0d\u82e6
p1826
sVRemarkPYInitial
p1827
g52
sVContactFlag
p1828
I3
sVUin
p1829
I0
sVNickName
p1830
VDandelion
p1831
sVAppAccountFlag
p1832
I0
sVVerifyFlag
p1833
I0
sVRemarkPYQuanPin
p1834
g52
sVHeadImgUrl
p1835
V/cgi-bin/mmwebwx-bin/webwxgeticon?seq=663589559&username=@b4017867e5979af0b6950087491576c021869997ca6d3701ed546e58ca406d4e&skey=@crypt_915d192c_859cf8b7c20c6eeafe0c834301ece725
p1836
sVKeyWord
p1837
g52
sVProvince
p1838
V\u6c5f\u82cf
p1839
sVPYInitial
p1840
VDANDELION
p1841
sVRemarkName
p1842
g52
sVIsOwner
p1843
I0
sVSex
p1844
I1
sVStarFriend
p1845
I0
sVHideInputBarFlag
p1846
I0
sVChatRoomId
p1847
I0
sVEncryChatRoomId
p1848
g52
sVAttrStatus
p1849
I101
sVStatues
p1850
I0
stp1851
Rp1852
I1
bag34
(g38
g39
(dp1853
VUserName
p1854
V@e259d3f353e7be92830e9f0d2281a00f1fe4bd0d94b1ae2568d38d17e009ea58
p1855
sVCity
p1856
g52
sVSnsFlag
p1857
I0
sVDisplayName
p1858
g52
sVUniFriend
p1859
I0
sVMemberCount
p1860
I0
sVOwnerUin
p1861
I0
sVMemberList
p1862
g50
sVAlias
p1863
g52
sVPYQuanPin
p1864
Vjinghe
p1865
sVSignature
p1866
g52
sVRemarkPYInitial
p1867
g52
sVContactFlag
p1868
I65539
sVUin
p1869
I0
sVNickName
p1870
V\u656c\u548c
p1871
sVAppAccountFlag
p1872
I0
sVVerifyFlag
p1873
I0
sVRemarkPYQuanPin
p1874
g52
sVHeadImgUrl
p1875
V/cgi-bin/mmwebwx-bin/webwxgeticon?seq=657420741&username=@e259d3f353e7be92830e9f0d2281a00f1fe4bd0d94b1ae2568d38d17e009ea58&skey=@crypt_915d192c_859cf8b7c20c6eeafe0c834301ece725
p1876
sVKeyWord
p1877
g52
sVProvince
p1878
g52
sVPYInitial
p1879
VJH
p1880
sVRemarkName
p1881
g52
sVIsOwner
p1882
I0
sVSex
p1883
I0
sVStarFriend
p1884
I0
sVHideInputBarFlag
p1885
I0
sVChatRoomId
p1886
I0
sVEncryChatRoomId
p1887
g52
sVAttrStatus
p1888
I103037
sVStatues
p1889
I0
stp1890
Rp1891
I1
bag34
(g38
g39
(dp1892
VUserName
p1893
V@e0d12378c2b985c52622be7a41daf3201dc3536e0b96f9dd81835955acb7f2cc
p1894
sVCity
p1895
g52
sVSnsFlag
p1896
I17
sVDisplayName
p1897
g52
sVUniFriend
p1898
I0
sVMemberCount
p1899
I0
sVOwnerUin
p1900
I0
sVMemberList
p1901
g50
sVAlias
p1902
Vtianleiaidm
p1903
sVPYQuanPin
p1904
Vtianlei
p1905
sVSignature
p1906
V\u4e0d\u60f3\u5b66\u4e60
p1907
sVRemarkPYInitial
p1908
g52
sVContactFlag
p1909
I1
sVUin
p1910
I0
sVNickName
p1911
V\u7530\u78ca
p1912
sVAppAccountFlag
p1913
I0
sVVerifyFlag
p1914
I0
sVRemarkPYQuanPin
p1915
g52
sVHeadImgUrl
p1916
V/cgi-bin/mmwebwx-bin/webwxgeticon?seq=657437513&username=@e0d12378c2b985c52622be7a41daf3201dc3536e0b96f9dd81835955acb7f2cc&skey=@crypt_915d192c_859cf8b7c20c6eeafe0c834301ece725
p1917
sVKeyWord
p1918
g52
sVProvince
p1919
g52
sVPYInitial
p1920
VTL
p1921
sVRemarkName
p1922
g52
sVIsOwner
p1923
I0
sVSex
p1924
I1
sVStarFriend
p1925
I0
sVHideInputBarFlag
p1926
I0
sVChatRoomId
p1927
I0
sVEncryChatRoomId
p1928
g52
sVAttrStatus
p1929
I99365
sVStatues
p1930
I0
stp1931
Rp1932
I1
bag34
(g38
g39
(dp1933
VUserName
p1934
V@799d059e19f6975c871ff7fdddbb83f907d4a264b8b13cdceae8377d8ed5cddd
p1935
sVCity
p1936
V\u6d77\u6dc0
p1937
sVSnsFlag
p1938
I1
sVDisplayName
p1939
g52
sVUniFriend
p1940
I0
sVMemberCount
p1941
I0
sVOwnerUin
p1942
I0
sVMemberList
p1943
g50
sVAlias
p1944
VTsoChang
p1945
sVPYQuanPin
p1946
Vzhangzhuo
p1947
sVSignature
p1948
g52
sVRemarkPYInitial
p1949
g52
sVContactFlag
p1950
I3
sVUin
p1951
I0
sVNickName
p1952
V\u5f20\u5353
p1953
sVAppAccountFlag
p1954
I0
sVVerifyFlag
p1955
I0
sVRemarkPYQuanPin
p1956
g52
sVHeadImgUrl
p1957
V/cgi-bin/mmwebwx-bin/webwxgeticon?seq=651027693&username=@799d059e19f6975c871ff7fdddbb83f907d4a264b8b13cdceae8377d8ed5cddd&skey=@crypt_915d192c_859cf8b7c20c6eeafe0c834301ece725
p1958
sVKeyWord
p1959
g52
sVProvince
p1960
V\u5317\u4eac
p1961
sVPYInitial
p1962
VZZ
p1963
sVRemarkName
p1964
g52
sVIsOwner
p1965
I0
sVSex
p1966
I1
sVStarFriend
p1967
I0
sVHideInputBarFlag
p1968
I0
sVChatRoomId
p1969
I0
sVEncryChatRoomId
p1970
g52
sVAttrStatus
p1971
I234365
sVStatues
p1972
I0
stp1973
Rp1974
I1
bag34
(g38
g39
(dp1975
VUserName
p1976
V@4e4ce17299e28022a858e40ce7b700dc643bbfa5a01ae55a63c09f0e7dd844ab
p1977
sVCity
p1978
V\u6d77\u6dc0
p1979
sVSnsFlag
p1980
I1
sVDisplayName
p1981
g52
sVUniFriend
p1982
I0
sVMemberCount
p1983
I0
sVOwnerUin
p1984
I0
sVMemberList
p1985
g50
sVAlias
p1986
Vdouser26452
p1987
sVPYQuanPin
p1988
Vliziranranranran
p1989
sVSignature
p1990
V\u81ea\u53e4\u67aa\u5175\u5e78\u8fd0E
p1991
sVRemarkPYInitial
p1992
g52
sVContactFlag
p1993
I3
sVUin
p1994
I0
sVNickName
p1995
V\u9ece\u5b50\u7136\u7136\u7136\u7136
p1996
sVAppAccountFlag
p1997
I0
sVVerifyFlag
p1998
I0
sVRemarkPYQuanPin
p1999
g52
sVHeadImgUrl
p2000
V/cgi-bin/mmwebwx-bin/webwxgeticon?seq=663587706&username=@4e4ce17299e28022a858e40ce7b700dc643bbfa5a01ae55a63c09f0e7dd844ab&skey=@crypt_915d192c_859cf8b7c20c6eeafe0c834301ece725
p2001
sVKeyWord
p2002
g52
sVProvince
p2003
V\u5317\u4eac
p2004
sVPYInitial
p2005
VLZRRRR
p2006
sVRemarkName
p2007
g52
sVIsOwner
p2008
I0
sVSex
p2009
I1
sVStarFriend
p2010
I0
sVHideInputBarFlag
p2011
I0
sVChatRoomId
p2012
I0
sVEncryChatRoomId
p2013
g52
sVAttrStatus
p2014
I4221
sVStatues
p2015
I0
stp2016
Rp2017
I1
bag34
(g38
g39
(dp2018
VUserName
p2019
V@cf1be97c163e4565dbe99abbba4161cc
p2020
sVCity
p2021
V\u6d77\u6dc0
p2022
sVSnsFlag
p2023
I49
sVDisplayName
p2024
g52
sVUniFriend
p2025
I0
sVMemberCount
p2026
I0
sVOwnerUin
p2027
I0
sVMemberList
p2028
g50
sVAlias
p2029
g52
sVPYQuanPin
p2030
Vspanclassemojiemoji2728spanchaogaojiaojixiwangspanclassemojiemoji2728span
p2031
sVSignature
p2032
V  \u5584\u826f\u7684\u4eba \u8fd0\u6c14\u603b\u662f\u4e0d\u4f1a\u592a\u5dee
p2033
sVRemarkPYInitial
p2034
g52
sVContactFlag
p2035
I3
sVUin
p2036
I0
sVNickName
p2037
V\u2728\u8d85\u9ad8\u6821\u7ea7\u306e\u5e0c\u671b\u2728
p2038
sVAppAccountFlag
p2039
I0
sVVerifyFlag
p2040
I0
sVRemarkPYQuanPin
p2041
g52
sVHeadImgUrl
p2042
V/cgi-bin/mmwebwx-bin/webwxgeticon?seq=663590715&username=@cf1be97c163e4565dbe99abbba4161cc&skey=@crypt_915d192c_859cf8b7c20c6eeafe0c834301ece725
p2043
sVKeyWord
p2044
Vyun
p2045
sVProvince
p2046
V\u5317\u4eac
p2047
sVPYInitial
p2048
VSPANCLASSEMOJIEMOJI2728SPANCGJJXWSPANCLASSEMOJIEMOJI2728SPAN
p2049
sVRemarkName
p2050
g52
sVIsOwner
p2051
I0
sVSex
p2052
I2
sVStarFriend
p2053
I0
sVHideInputBarFlag
p2054
I0
sVChatRoomId
p2055
I0
sVEncryChatRoomId
p2056
g52
sVAttrStatus
p2057
I112231
sVStatues
p2058
I0
stp2059
Rp2060
I1
bag34
(g38
g39
(dp2061
VUserName
p2062
V@a43b842cb008ec2d5cc975decb303faf35e184ef251d10c36056d54894a5b42a
p2063
sVCity
p2064
V\u6d77\u6dc0
p2065
sVSnsFlag
p2066
I17
sVDisplayName
p2067
g52
sVUniFriend
p2068
I0
sVMemberCount
p2069
I0
sVOwnerUin
p2070
I0
sVMemberList
p2071
g50
sVAlias
p2072
VPacific_73
p2073
sVPYQuanPin
p2074
V73qingshan
p2075
sVSignature
p2076
V\u597d\u597d\u5b66\u4e60
p2077
sVRemarkPYInitial
p2078
g52
sVContactFlag
p2079
I3
sVUin
p2080
I0
sVNickName
p2081
V73\u9752\u5c71
p2082
sVAppAccountFlag
p2083
I0
sVVerifyFlag
p2084
I0
sVRemarkPYQuanPin
p2085
g52
sVHeadImgUrl
p2086
V/cgi-bin/mmwebwx-bin/webwxgeticon?seq=663588202&username=@a43b842cb008ec2d5cc975decb303faf35e184ef251d10c36056d54894a5b42a&skey=@crypt_915d192c_859cf8b7c20c6eeafe0c834301ece725
p2087
sVKeyWord
p2088
Vtim
p2089
sVProvince
p2090
V\u5317\u4eac
p2091
sVPYInitial
p2092
V73QS
p2093
sVRemarkName
p2094
g52
sVIsOwner
p2095
I0
sVSex
p2096
I1
sVStarFriend
p2097
I0
sVHideInputBarFlag
p2098
I0
sVChatRoomId
p2099
I0
sVEncryChatRoomId
p2100
g52
sVAttrStatus
p2101
I33681511
sVStatues
p2102
I0
stp2103
Rp2104
I1
bag34
(g38
g39
(dp2105
VUserName
p2106
V@3600396706bafc220cec97f616c9e59cc74e79465a83a40fa4c1d66c4cf62ba2
p2107
sVCity
p2108
V\u6d77\u6dc0
p2109
sVSnsFlag
p2110
I1
sVDisplayName
p2111
g52
sVUniFriend
p2112
I0
sVMemberCount
p2113
I0
sVOwnerUin
p2114
I0
sVMemberList
p2115
g50
sVAlias
p2116
Vevanhou69
p2117
sVPYQuanPin
p2118
Vspanclassemojiemoji1f435spanspanclassemojiemoji1f4a7spanfan
p2119
sVSignature
p2120
V\u677e\u82b1\u917f\u9152\uff0c\u6625\u6c34\u714e\u8336\u3002
p2121
sVRemarkPYInitial
p2122
g52
sVContactFlag
p2123
I8195
sVUin
p2124
I0
sVNickName
p2125
V\U0001f435\U0001f4a7\u51e1
p2126
sVAppAccountFlag
p2127
I0
sVVerifyFlag
p2128
I0
sVRemarkPYQuanPin
p2129
g52
sVHeadImgUrl
p2130
V/cgi-bin/mmwebwx-bin/webwxgeticon?seq=663591841&username=@3600396706bafc220cec97f616c9e59cc74e79465a83a40fa4c1d66c4cf62ba2&skey=@crypt_915d192c_859cf8b7c20c6eeafe0c834301ece725
p2131
sVKeyWord
p2132
g52
sVProvince
p2133
V\u5317\u4eac
p2134
sVPYInitial
p2135
VSPANCLASSEMOJIEMOJI1F435SPANSPANCLASSEMOJIEMOJI1F4A7SPANF
p2136
sVRemarkName
p2137
g52
sVIsOwner
p2138
I0
sVSex
p2139
I1
sVStarFriend
p2140
I0
sVHideInputBarFlag
p2141
I0
sVChatRoomId
p2142
I0
sVEncryChatRoomId
p2143
g52
sVAttrStatus
p2144
I233573
sVStatues
p2145
I0
stp2146
Rp2147
I1
bag34
(g38
g39
(dp2148
VUserName
p2149
V@188183b06b88aaef30ac4b964e5812729f4ad73e24f4540a20fde6474e7adc94
p2150
sVCity
p2151
V\u6c49\u4e2d
p2152
sVSnsFlag
p2153
I17
sVDisplayName
p2154
g52
sVUniFriend
p2155
I0
sVMemberCount
p2156
I0
sVOwnerUin
p2157
I0
sVMemberList
p2158
g50
sVAlias
p2159
Vzhan9zhang
p2160
sVPYQuanPin
p2161
Vsaiyumomao
p2162
sVSignature
p2163
V\u6614\u65e5\u73ab\u7470\u4ee5\u5176\u540d\u6d41\u82b3\uff0c\u4eca\u4eba\u6240\u6301\u552f\u73ab\u7470\u4e4b\u540d\u3002
p2164
sVRemarkPYInitial
p2165
g52
sVContactFlag
p2166
I3
sVUin
p2167
I0
sVNickName
p2168
V\u601d\u8bed\u6478\u732b
p2169
sVAppAccountFlag
p2170
I0
sVVerifyFlag
p2171
I0
sVRemarkPYQuanPin
p2172
g52
sVHeadImgUrl
p2173
V/cgi-bin/mmwebwx-bin/webwxgeticon?seq=663593112&username=@188183b06b88aaef30ac4b964e5812729f4ad73e24f4540a20fde6474e7adc94&skey=@crypt_915d192c_859cf8b7c20c6eeafe0c834301ece725
p2174
sVKeyWord
p2175
g52
sVProvince
p2176
V\u9655\u897f
p2177
sVPYInitial
p2178
VSYMM
p2179
sVRemarkName
p2180
g52
sVIsOwner
p2181
I0
sVSex
p2182
I2
sVStarFriend
p2183
I0
sVHideInputBarFlag
p2184
I0
sVChatRoomId
p2185
I0
sVEncryChatRoomId
p2186
g52
sVAttrStatus
p2187
I104933
sVStatues
p2188
I0
stp2189
Rp2190
I1
bag34
(g38
g39
(dp2191
VUserName
p2192
V@0f41a3f851ffca5fc970e6225aaff32fb6497d2cf0a1b66b0a18455fbb611cb5
p2193
sVCity
p2194
V\u660c\u5e73
p2195
sVSnsFlag
p2196
I17
sVDisplayName
p2197
g52
sVUniFriend
p2198
I0
sVMemberCount
p2199
I0
sVOwnerUin
p2200
I0
sVMemberList
p2201
g50
sVAlias
p2202
g52
sVPYQuanPin
p2203
Vfendou
p2204
sVSignature
p2205
V\u5929\u51c9\u4e0d\u662f\u79cb\uff0c\u5fc3\u51c9\u65b9\u89c9\u51b7\uff01\uff01
p2206
sVRemarkPYInitial
p2207
VZYF
p2208
sVContactFlag
p2209
I65539
sVUin
p2210
I0
sVNickName
p2211
V\u594b\u6597
p2212
sVAppAccountFlag
p2213
I0
sVVerifyFlag
p2214
I0
sVRemarkPYQuanPin
p2215
Vzhangyanfeng
p2216
sVHeadImgUrl
p2217
V/cgi-bin/mmwebwx-bin/webwxgeticon?seq=657426301&username=@0f41a3f851ffca5fc970e6225aaff32fb6497d2cf0a1b66b0a18455fbb611cb5&skey=@crypt_915d192c_859cf8b7c20c6eeafe0c834301ece725
p2218
sVKeyWord
p2219
g52
sVProvince
p2220
V\u5317\u4eac
p2221
sVPYInitial
p2222
VFD
p2223
sVRemarkName
p2224
V\u5f20\u708e\u5cf0
p2225
sVIsOwner
p2226
I0
sVSex
p2227
I1
sVStarFriend
p2228
I0
sVHideInputBarFlag
p2229
I0
sVChatRoomId
p2230
I0
sVEncryChatRoomId
p2231
g52
sVAttrStatus
p2232
I135237
sVStatues
p2233
I0
stp2234
Rp2235
I1
bag34
(g38
g39
(dp2236
VUserName
p2237
V@0749d431d9db7d0e82f85a56a79986b3747eeddd8c6379d4540ea2a2689babcf
p2238
sVCity
p2239
V\u6d77\u6dc0
p2240
sVSnsFlag
p2241
I49
sVDisplayName
p2242
g52
sVUniFriend
p2243
I0
sVMemberCount
p2244
I0
sVOwnerUin
p2245
I0
sVMemberList
p2246
g50
sVAlias
p2247
Vexbracer
p2248
sVPYQuanPin
p2249
Vxiaoqiaobangzhu
p2250
sVSignature
p2251
V\u7edd\u4e0d\u80fd\u5728\u8fd9\u91cc\u5012\u4e0b\uff01
p2252
sVRemarkPYInitial
p2253
g52
sVContactFlag
p2254
I3
sVUin
p2255
I0
sVNickName
p2256
V\u5c0f\u4e54\u5e2e\u4e3b
p2257
sVAppAccountFlag
p2258
I0
sVVerifyFlag
p2259
I0
sVRemarkPYQuanPin
p2260
g52
sVHeadImgUrl
p2261
V/cgi-bin/mmwebwx-bin/webwxgeticon?seq=663593302&username=@0749d431d9db7d0e82f85a56a79986b3747eeddd8c6379d4540ea2a2689babcf&skey=@crypt_915d192c_859cf8b7c20c6eeafe0c834301ece725
p2262
sVKeyWord
p2263
g52
sVProvince
p2264
V\u5317\u4eac
p2265
sVPYInitial
p2266
VXQBZ
p2267
sVRemarkName
p2268
g52
sVIsOwner
p2269
I0
sVSex
p2270
I1
sVStarFriend
p2271
I0
sVHideInputBarFlag
p2272
I0
sVChatRoomId
p2273
I0
sVEncryChatRoomId
p2274
g52
sVAttrStatus
p2275
I102503
sVStatues
p2276
I0
stp2277
Rp2278
I1
bag34
(g38
g39
(dp2279
VUserName
p2280
V@95d61406e3ac05010783b17438f61a1d
p2281
sVCity
p2282
V\u6d77\u6dc0
p2283
sVSnsFlag
p2284
I49
sVDisplayName
p2285
g52
sVUniFriend
p2286
I0
sVMemberCount
p2287
I0
sVOwnerUin
p2288
I0
sVMemberList
p2289
g50
sVAlias
p2290
g52
sVPYQuanPin
p2291
Vsuhang
p2292
sVSignature
p2293
V\u773c\u770b\u4ed6\u8d77\u6731\u697c \u773c\u770b\u4ed6\u5bb4\u5bbe\u5ba2
p2294
sVRemarkPYInitial
p2295
g52
sVContactFlag
p2296
I2051
sVUin
p2297
I0
sVNickName
p2298
V\u82cf\u822a
p2299
sVAppAccountFlag
p2300
I0
sVVerifyFlag
p2301
I0
sVRemarkPYQuanPin
p2302
g52
sVHeadImgUrl
p2303
V/cgi-bin/mmwebwx-bin/webwxgeticon?seq=663593121&username=@95d61406e3ac05010783b17438f61a1d&skey=@crypt_915d192c_859cf8b7c20c6eeafe0c834301ece725
p2304
sVKeyWord
p2305
Vsuh
p2306
sVProvince
p2307
V\u5317\u4eac
p2308
sVPYInitial
p2309
VSH
p2310
sVRemarkName
p2311
g52
sVIsOwner
p2312
I0
sVSex
p2313
I1
sVStarFriend
p2314
I0
sVHideInputBarFlag
p2315
I0
sVChatRoomId
p2316
I0
sVEncryChatRoomId
p2317
g52
sVAttrStatus
p2318
I67352807
sVStatues
p2319
I0
stp2320
Rp2321
I1
bag34
(g38
g39
(dp2322
VUserName
p2323
V@3308fd6ec4eba01a2fd160e36be359081996d770f819bca5fff964b0a9bb9afb
p2324
sVCity
p2325
V\u6d77\u6dc0
p2326
sVSnsFlag
p2327
I17
sVDisplayName
p2328
g52
sVUniFriend
p2329
I0
sVMemberCount
p2330
I0
sVOwnerUin
p2331
I0
sVMemberList
p2332
g50
sVAlias
p2333
Vzjxiaolu
p2334
sVPYQuanPin
p2335
Vpan
p2336
sVSignature
p2337
V\u6211\u4eec\u7684\u5f81\u9014\u662f\u661f\u8fb0\u5927\u6d77
p2338
sVRemarkPYInitial
p2339
g52
sVContactFlag
p2340
I3
sVUin
p2341
I0
sVNickName
p2342
Vpan
p2343
sVAppAccountFlag
p2344
I0
sVVerifyFlag
p2345
I0
sVRemarkPYQuanPin
p2346
g52
sVHeadImgUrl
p2347
V/cgi-bin/mmwebwx-bin/webwxgeticon?seq=646440980&username=@3308fd6ec4eba01a2fd160e36be359081996d770f819bca5fff964b0a9bb9afb&skey=@crypt_915d192c_859cf8b7c20c6eeafe0c834301ece725
p2348
sVKeyWord
p2349
g52
sVProvince
p2350
V\u5317\u4eac
p2351
sVPYInitial
p2352
VPAN
p2353
sVRemarkName
p2354
g52
sVIsOwner
p2355
I0
sVSex
p2356
I1
sVStarFriend
p2357
I0
sVHideInputBarFlag
p2358
I0
sVChatRoomId
p2359
I0
sVEncryChatRoomId
p2360
g52
sVAttrStatus
p2361
I33653567
sVStatues
p2362
I0
stp2363
Rp2364
I1
bag34
(g38
g39
(dp2365
VUserName
p2366
V@65d90906d4f50fca40c58c0515fee6a5ee4ad3cf3e190acc429505bf3289d0c0
p2367
sVCity
p2368
V\u9f50\u9f50\u54c8\u5c14
p2369
sVSnsFlag
p2370
I1
sVDisplayName
p2371
g52
sVUniFriend
p2372
I0
sVMemberCount
p2373
I0
sVOwnerUin
p2374
I0
sVMemberList
p2375
g50
sVAlias
p2376
g52
sVPYQuanPin
p2377
Vwangwang
p2378
sVSignature
p2379
g52
sVRemarkPYInitial
p2380
g52
sVContactFlag
p2381
I1
sVUin
p2382
I0
sVNickName
p2383
V\u6c6a\u6c6a
p2384
sVAppAccountFlag
p2385
I0
sVVerifyFlag
p2386
I0
sVRemarkPYQuanPin
p2387
g52
sVHeadImgUrl
p2388
V/cgi-bin/mmwebwx-bin/webwxgeticon?seq=663594259&username=@65d90906d4f50fca40c58c0515fee6a5ee4ad3cf3e190acc429505bf3289d0c0&skey=@crypt_915d192c_859cf8b7c20c6eeafe0c834301ece725
p2389
sVKeyWord
p2390
g52
sVProvince
p2391
V\u9ed1\u9f99\u6c5f
p2392
sVPYInitial
p2393
VWW
p2394
sVRemarkName
p2395
g52
sVIsOwner
p2396
I0
sVSex
p2397
I1
sVStarFriend
p2398
I0
sVHideInputBarFlag
p2399
I0
sVChatRoomId
p2400
I0
sVEncryChatRoomId
p2401
g52
sVAttrStatus
p2402
I4133
sVStatues
p2403
I0
stp2404
Rp2405
I1
bag34
(g38
g39
(dp2406
VUserName
p2407
V@3bb64c7ac332ef80469ab5748a3f1bc4
p2408
sVCity
p2409
V\u6d77\u6dc0
p2410
sVSnsFlag
p2411
I17
sVDisplayName
p2412
g52
sVUniFriend
p2413
I0
sVMemberCount
p2414
I0
sVOwnerUin
p2415
I0
sVMemberList
p2416
g50
sVAlias
p2417
g52
sVPYQuanPin
p2418
Vlihaoyang
p2419
sVSignature
p2420
V\u966a\u4f34\u662f\u6700\u957f\u60c5\u7684\u544a\u767d
p2421
sVRemarkPYInitial
p2422
g52
sVContactFlag
p2423
I3
sVUin
p2424
I0
sVNickName
p2425
V\u674e\u660a\u9633\u3001
p2426
sVAppAccountFlag
p2427
I0
sVVerifyFlag
p2428
I0
sVRemarkPYQuanPin
p2429
g52
sVHeadImgUrl
p2430
V/cgi-bin/mmwebwx-bin/webwxgeticon?seq=663594441&username=@3bb64c7ac332ef80469ab5748a3f1bc4&skey=@crypt_915d192c_859cf8b7c20c6eeafe0c834301ece725
p2431
sVKeyWord
p2432
Vlhy
p2433
sVProvince
p2434
V\u5317\u4eac
p2435
sVPYInitial
p2436
VLHY
p2437
sVRemarkName
p2438
g52
sVIsOwner
p2439
I0
sVSex
p2440
I1
sVStarFriend
p2441
I0
sVHideInputBarFlag
p2442
I0
sVChatRoomId
p2443
I0
sVEncryChatRoomId
p2444
g52
sVAttrStatus
p2445
I50462823
sVStatues
p2446
I0
stp2447
Rp2448
I1
bag34
(g38
g39
(dp2449
VUserName
p2450
V@d04c512c4c43c077f9a591f83f253dd3
p2451
sVCity
p2452
V\u6d77\u6dc0
p2453
sVSnsFlag
p2454
I49
sVDisplayName
p2455
g52
sVUniFriend
p2456
I0
sVMemberCount
p2457
I0
sVOwnerUin
p2458
I0
sVMemberList
p2459
g50
sVAlias
p2460
g52
sVPYQuanPin
p2461
Vdongyinpeng
p2462
sVSignature
p2463
g52
sVRemarkPYInitial
p2464
g52
sVContactFlag
p2465
I3
sVUin
p2466
I0
sVNickName
p2467
V\u8463\u80e4\u84ec
p2468
sVAppAccountFlag
p2469
I0
sVVerifyFlag
p2470
I0
sVRemarkPYQuanPin
p2471
g52
sVHeadImgUrl
p2472
V/cgi-bin/mmwebwx-bin/webwxgeticon?seq=663594834&username=@d04c512c4c43c077f9a591f83f253dd3&skey=@crypt_915d192c_859cf8b7c20c6eeafe0c834301ece725
p2473
sVKeyWord
p2474
Vdon
p2475
sVProvince
p2476
V\u5317\u4eac
p2477
sVPYInitial
p2478
VDYP
p2479
sVRemarkName
p2480
g52
sVIsOwner
p2481
I0
sVSex
p2482
I1
sVStarFriend
p2483
I0
sVHideInputBarFlag
p2484
I0
sVChatRoomId
p2485
I0
sVEncryChatRoomId
p2486
g52
sVAttrStatus
p2487
I98343
sVStatues
p2488
I0
stp2489
Rp2490
I1
bag34
(g38
g39
(dp2491
VUserName
p2492
V@73b91a011073bf1a13b985bd6b4031b389c28b42a9429f92d856b648f7d34503
p2493
sVCity
p2494
V\u6d77\u6dc0
p2495
sVSnsFlag
p2496
I1
sVDisplayName
p2497
g52
sVUniFriend
p2498
I0
sVMemberCount
p2499
I0
sVOwnerUin
p2500
I0
sVMemberList
p2501
g50
sVAlias
p2502
Vhljsygdbt
p2503
sVPYQuanPin
p2504
Vhuanglijieerhao
p2505
sVSignature
p2506
V\u613f\u6765\u751f\u8fd8\u505a
p2507
sVRemarkPYInitial
p2508
g52
sVContactFlag
p2509
I1
sVUin
p2510
I0
sVNickName
p2511
V\u6643\u793c\u754c\u4e8c\u53f7
p2512
sVAppAccountFlag
p2513
I0
sVVerifyFlag
p2514
I0
sVRemarkPYQuanPin
p2515
g52
sVHeadImgUrl
p2516
V/cgi-bin/mmwebwx-bin/webwxgeticon?seq=663588396&username=@73b91a011073bf1a13b985bd6b4031b389c28b42a9429f92d856b648f7d34503&skey=@crypt_915d192c_859cf8b7c20c6eeafe0c834301ece725
p2517
sVKeyWord
p2518
g52
sVProvince
p2519
V\u5317\u4eac
p2520
sVPYInitial
p2521
VHLJEH
p2522
sVRemarkName
p2523
g52
sVIsOwner
p2524
I0
sVSex
p2525
I2
sVStarFriend
p2526
I0
sVHideInputBarFlag
p2527
I0
sVChatRoomId
p2528
I0
sVEncryChatRoomId
p2529
g52
sVAttrStatus
p2530
I234277
sVStatues
p2531
I0
stp2532
Rp2533
I1
bag34
(g38
g39
(dp2534
VUserName
p2535
V@722d8efb31c35cc282eeb49e56881789221288567a41b3afe2122e258535e591
p2536
sVCity
p2537
g52
sVSnsFlag
p2538
I49
sVDisplayName
p2539
g52
sVUniFriend
p2540
I0
sVMemberCount
p2541
I0
sVOwnerUin
p2542
I0
sVMemberList
p2543
g50
sVAlias
p2544
Vrzy_steve
p2545
sVPYQuanPin
p2546
Vxihadedianxian
p2547
sVSignature
p2548
g52
sVRemarkPYInitial
p2549
VRZY
p2550
sVContactFlag
p2551
I3
sVUin
p2552
I0
sVNickName
p2553
V\u563b\u54c8\u7684\u7535\u7ebf
p2554
sVAppAccountFlag
p2555
I0
sVVerifyFlag
p2556
I0
sVRemarkPYQuanPin
p2557
Vrenziyu
p2558
sVHeadImgUrl
p2559
V/cgi-bin/mmwebwx-bin/webwxgeticon?seq=663594889&username=@722d8efb31c35cc282eeb49e56881789221288567a41b3afe2122e258535e591&skey=@crypt_915d192c_859cf8b7c20c6eeafe0c834301ece725
p2560
sVKeyWord
p2561
g52
sVProvince
p2562
g52
sVPYInitial
p2563
VXHDDX
p2564
sVRemarkName
p2565
V\u4efb\u5b50\u79b9
p2566
sVIsOwner
p2567
I0
sVSex
p2568
I1
sVStarFriend
p2569
I0
sVHideInputBarFlag
p2570
I0
sVChatRoomId
p2571
I0
sVEncryChatRoomId
p2572
g52
sVAttrStatus
p2573
I102501
sVStatues
p2574
I0
stp2575
Rp2576
I1
bag34
(g38
g39
(dp2577
VUserName
p2578
V@067a621bb182e424249956c75bd672a8874d5a6ccf0f4ef7aacb7edd0353dceb
p2579
sVCity
p2580
V\u94dc\u9675
p2581
sVSnsFlag
p2582
I1
sVDisplayName
p2583
g52
sVUniFriend
p2584
I0
sVMemberCount
p2585
I0
sVOwnerUin
p2586
I0
sVMemberList
p2587
g50
sVAlias
p2588
g52
sVPYQuanPin
p2589
Vzhangwei
p2590
sVSignature
p2591
g52
sVRemarkPYInitial
p2592
g52
sVContactFlag
p2593
I1
sVUin
p2594
I0
sVNickName
p2595
V\u5f20\u851a
p2596
sVAppAccountFlag
p2597
I0
sVVerifyFlag
p2598
I0
sVRemarkPYQuanPin
p2599
g52
sVHeadImgUrl
p2600
V/cgi-bin/mmwebwx-bin/webwxgeticon?seq=646440652&username=@067a621bb182e424249956c75bd672a8874d5a6ccf0f4ef7aacb7edd0353dceb&skey=@crypt_915d192c_859cf8b7c20c6eeafe0c834301ece725
p2601
sVKeyWord
p2602
g52
sVProvince
p2603
V\u5b89\u5fbd
p2604
sVPYInitial
p2605
VZW
p2606
sVRemarkName
p2607
g52
sVIsOwner
p2608
I0
sVSex
p2609
I1
sVStarFriend
p2610
I0
sVHideInputBarFlag
p2611
I0
sVChatRoomId
p2612
I0
sVEncryChatRoomId
p2613
g52
sVAttrStatus
p2614
I33656935
sVStatues
p2615
I0
stp2616
Rp2617
I1
bag34
(g38
g39
(dp2618
VUserName
p2619
V@082d5c7e52fd8a2e7e2a8f6a868e7bd8
p2620
sVCity
p2621
V\u6d77\u6dc0
p2622
sVSnsFlag
p2623
I17
sVDisplayName
p2624
g52
sVUniFriend
p2625
I0
sVMemberCount
p2626
I0
sVOwnerUin
p2627
I0
sVMemberList
p2628
g50
sVAlias
p2629
Vwww_jinzihao_info
p2630
sVPYQuanPin
p2631
Vjinzihao
p2632
sVSignature
p2633
g52
sVRemarkPYInitial
p2634
g52
sVContactFlag
p2635
I1
sVUin
p2636
I0
sVNickName
p2637
Vjinzihao
p2638
sVAppAccountFlag
p2639
I0
sVVerifyFlag
p2640
I0
sVRemarkPYQuanPin
p2641
g52
sVHeadImgUrl
p2642
V/cgi-bin/mmwebwx-bin/webwxgeticon?seq=663595137&username=@082d5c7e52fd8a2e7e2a8f6a868e7bd8&skey=@crypt_915d192c_859cf8b7c20c6eeafe0c834301ece725
p2643
sVKeyWord
p2644
Vmsd
p2645
sVProvince
p2646
V\u5317\u4eac
p2647
sVPYInitial
p2648
VJINZIHAO
p2649
sVRemarkName
p2650
g52
sVIsOwner
p2651
I0
sVSex
p2652
I1
sVStarFriend
p2653
I0
sVHideInputBarFlag
p2654
I0
sVChatRoomId
p2655
I0
sVEncryChatRoomId
p2656
g52
sVAttrStatus
p2657
I33787943
sVStatues
p2658
I0
stp2659
Rp2660
I1
bag34
(g38
g39
(dp2661
VUserName
p2662
V@f343df282a1ee288f2a31cbaca3ea157
p2663
sVCity
p2664
V\u897f\u5b89
p2665
sVSnsFlag
p2666
I17
sVDisplayName
p2667
g52
sVUniFriend
p2668
I0
sVMemberCount
p2669
I0
sVOwnerUin
p2670
I0
sVMemberList
p2671
g50
sVAlias
p2672
Vgezerui
p2673
sVPYQuanPin
p2674
Vgezerui
p2675
sVSignature
p2676
VNow that you know, this is my life.
p2677
sVRemarkPYInitial
p2678
g52
sVContactFlag
p2679
I3
sVUin
p2680
I0
sVNickName
p2681
V\u845b\u6cfd\u777f
p2682
sVAppAccountFlag
p2683
I0
sVVerifyFlag
p2684
I0
sVRemarkPYQuanPin
p2685
g52
sVHeadImgUrl
p2686
V/cgi-bin/mmwebwx-bin/webwxgeticon?seq=657440598&username=@f343df282a1ee288f2a31cbaca3ea157&skey=@crypt_915d192c_859cf8b7c20c6eeafe0c834301ece725
p2687
sVKeyWord
p2688
Vgzr
p2689
sVProvince
p2690
V\u9655\u897f
p2691
sVPYInitial
p2692
VGZR
p2693
sVRemarkName
p2694
g52
sVIsOwner
p2695
I0
sVSex
p2696
I1
sVStarFriend
p2697
I0
sVHideInputBarFlag
p2698
I0
sVChatRoomId
p2699
I0
sVEncryChatRoomId
p2700
g52
sVAttrStatus
p2701
I110628
sVStatues
p2702
I0
stp2703
Rp2704
I1
bag34
(g38
g39
(dp2705
VUserName
p2706
V@b1613fbe73c0ea6066c07fa97b895e52
p2707
sVCity
p2708
V\u6d77\u6dc0
p2709
sVSnsFlag
p2710
I49
sVDisplayName
p2711
g52
sVUniFriend
p2712
I0
sVMemberCount
p2713
I0
sVOwnerUin
p2714
I0
sVMemberList
p2715
g50
sVAlias
p2716
g52
sVPYQuanPin
p2717
Vxuzhexin
p2718
sVSignature
p2719
VFC 3566 2855 1052
p2720
sVRemarkPYInitial
p2721
g52
sVContactFlag
p2722
I3
sVUin
p2723
I0
sVNickName
p2724
V\u8bb8\u54f2\u6b23
p2725
sVAppAccountFlag
p2726
I0
sVVerifyFlag
p2727
I0
sVRemarkPYQuanPin
p2728
g52
sVHeadImgUrl
p2729
V/cgi-bin/mmwebwx-bin/webwxgeticon?seq=651017172&username=@b1613fbe73c0ea6066c07fa97b895e52&skey=@crypt_915d192c_859cf8b7c20c6eeafe0c834301ece725
p2730
sVKeyWord
p2731
Vxu-
p2732
sVProvince
p2733
V\u5317\u4eac
p2734
sVPYInitial
p2735
VXZX
p2736
sVRemarkName
p2737
g52
sVIsOwner
p2738
I0
sVSex
p2739
I1
sVStarFriend
p2740
I0
sVHideInputBarFlag
p2741
I0
sVChatRoomId
p2742
I0
sVEncryChatRoomId
p2743
g52
sVAttrStatus
p2744
I112551
sVStatues
p2745
I0
stp2746
Rp2747
I1
bag34
(g38
g39
(dp2748
VUserName
p2749
V@112e5bdeb35e6bc0e4a2650f9be430d21c03d30c87c5c41c2f98c504f980dc81
p2750
sVCity
p2751
V\u6d77\u6dc0
p2752
sVSnsFlag
p2753
I1
sVDisplayName
p2754
g52
sVUniFriend
p2755
I0
sVMemberCount
p2756
I0
sVOwnerUin
p2757
I0
sVMemberList
p2758
g50
sVAlias
p2759
VArtician
p2760
sVPYQuanPin
p2761
Vdujiaju
p2762
sVSignature
p2763
g52
sVRemarkPYInitial
p2764
g52
sVContactFlag
p2765
I1
sVUin
p2766
I0
sVNickName
p2767
V\u675c\u5bb6\u9a79
p2768
sVAppAccountFlag
p2769
I0
sVVerifyFlag
p2770
I0
sVRemarkPYQuanPin
p2771
g52
sVHeadImgUrl
p2772
V/cgi-bin/mmwebwx-bin/webwxgeticon?seq=663593372&username=@112e5bdeb35e6bc0e4a2650f9be430d21c03d30c87c5c41c2f98c504f980dc81&skey=@crypt_915d192c_859cf8b7c20c6eeafe0c834301ece725
p2773
sVKeyWord
p2774
g52
sVProvince
p2775
V\u5317\u4eac
p2776
sVPYInitial
p2777
VDJJ
p2778
sVRemarkName
p2779
g52
sVIsOwner
p2780
I0
sVSex
p2781
I1
sVStarFriend
p2782
I0
sVHideInputBarFlag
p2783
I0
sVChatRoomId
p2784
I0
sVEncryChatRoomId
p2785
g52
sVAttrStatus
p2786
I102589
sVStatues
p2787
I0
stp2788
Rp2789
I1
bag34
(g38
g39
(dp2790
VUserName
p2791
V@e5bbdf85ac2bc4612561a1f199047fd609a686e1a1417bf1d4525b7ce381e3c6
p2792
sVCity
p2793
V\u9e21\u897f
p2794
sVSnsFlag
p2795
I1
sVDisplayName
p2796
g52
sVUniFriend
p2797
I0
sVMemberCount
p2798
I0
sVOwnerUin
p2799
I0
sVMemberList
p2800
g50
sVAlias
p2801
Vzhangyuhang19951208
p2802
sVPYQuanPin
p2803
Vzhangyuhang
p2804
sVSignature
p2805
g52
sVRemarkPYInitial
p2806
g52
sVContactFlag
p2807
I3
sVUin
p2808
I0
sVNickName
p2809
V\u5f20\u5b87\u822a
p2810
sVAppAccountFlag
p2811
I0
sVVerifyFlag
p2812
I0
sVRemarkPYQuanPin
p2813
g52
sVHeadImgUrl
p2814
V/cgi-bin/mmwebwx-bin/webwxgeticon?seq=663596219&username=@e5bbdf85ac2bc4612561a1f199047fd609a686e1a1417bf1d4525b7ce381e3c6&skey=@crypt_915d192c_859cf8b7c20c6eeafe0c834301ece725
p2815
sVKeyWord
p2816
g52
sVProvince
p2817
V\u9ed1\u9f99\u6c5f
p2818
sVPYInitial
p2819
VZYH
p2820
sVRemarkName
p2821
g52
sVIsOwner
p2822
I0
sVSex
p2823
I1
sVStarFriend
p2824
I0
sVHideInputBarFlag
p2825
I0
sVChatRoomId
p2826
I0
sVEncryChatRoomId
p2827
g52
sVAttrStatus
p2828
I233573
sVStatues
p2829
I0
stp2830
Rp2831
I1
bag34
(g38
g39
(dp2832
VUserName
p2833
V@98072582080279d0f8a5784f8c5bf55216e81594d14a7ef7f1961faae5377cfa
p2834
sVCity
p2835
g52
sVSnsFlag
p2836
I1
sVDisplayName
p2837
g52
sVUniFriend
p2838
I0
sVMemberCount
p2839
I0
sVOwnerUin
p2840
I0
sVMemberList
p2841
g50
sVAlias
p2842
Vxuyue960518
p2843
sVPYQuanPin
p2844
Vxuyue
p2845
sVSignature
p2846
V\u5f53\u65f6\u7559\u604b\u6210\u4f55\u6d4e \u77e5\u6709\u98d8\u96f6 \u6bd5\u7adf\u98d8\u96f6 \u4fbf\u662f\u98d8\u96f6\u4e5f\u611f\u537f
p2847
sVRemarkPYInitial
p2848
g52
sVContactFlag
p2849
I1
sVUin
p2850
I0
sVNickName
p2851
V\u5f90\u73a5
p2852
sVAppAccountFlag
p2853
I0
sVVerifyFlag
p2854
I0
sVRemarkPYQuanPin
p2855
g52
sVHeadImgUrl
p2856
V/cgi-bin/mmwebwx-bin/webwxgeticon?seq=657443029&username=@98072582080279d0f8a5784f8c5bf55216e81594d14a7ef7f1961faae5377cfa&skey=@crypt_915d192c_859cf8b7c20c6eeafe0c834301ece725
p2857
sVKeyWord
p2858
g52
sVProvince
p2859
V\u5317\u4eac
p2860
sVPYInitial
p2861
VXY
p2862
sVRemarkName
p2863
g52
sVIsOwner
p2864
I0
sVSex
p2865
I2
sVStarFriend
p2866
I0
sVHideInputBarFlag
p2867
I0
sVChatRoomId
p2868
I0
sVEncryChatRoomId
p2869
g52
sVAttrStatus
p2870
I33787941
sVStatues
p2871
I0
stp2872
Rp2873
I1
bag34
(g38
g39
(dp2874
VUserName
p2875
V@2cea123c4e7d7357ad6abb9349a63d4c4e267f9e400709a9f4dd8412e02c8c20
p2876
sVCity
p2877
g52
sVSnsFlag
p2878
I49
sVDisplayName
p2879
g52
sVUniFriend
p2880
I0
sVMemberCount
p2881
I0
sVOwnerUin
p2882
I0
sVMemberList
p2883
g50
sVAlias
p2884
Vyyj5649
p2885
sVPYQuanPin
p2886
g52
sVSignature
p2887
V\u7528\u5fc3\u306b\u3057\u304f\u306f\u306a\u3044\u3002\u5b88\u6b63\uff0c\u79ef\u52bf\uff0c\u5f85\u65f6\u3002
p2888
sVRemarkPYInitial
p2889
g52
sVContactFlag
p2890
I3
sVUin
p2891
I0
sVNickName
p2892
V\u3088\u3063\u3061\u3083\u3093
p2893
sVAppAccountFlag
p2894
I0
sVVerifyFlag
p2895
I0
sVRemarkPYQuanPin
p2896
g52
sVHeadImgUrl
p2897
V/cgi-bin/mmwebwx-bin/webwxgeticon?seq=663595341&username=@2cea123c4e7d7357ad6abb9349a63d4c4e267f9e400709a9f4dd8412e02c8c20&skey=@crypt_915d192c_859cf8b7c20c6eeafe0c834301ece725
p2898
sVKeyWord
p2899
g52
sVProvince
p2900
VTokyo
p2901
sVPYInitial
p2902
g52
sVRemarkName
p2903
g52
sVIsOwner
p2904
I0
sVSex
p2905
I2
sVStarFriend
p2906
I0
sVHideInputBarFlag
p2907
I0
sVChatRoomId
p2908
I0
sVEncryChatRoomId
p2909
g52
sVAttrStatus
p2910
I4293029
sVStatues
p2911
I0
stp2912
Rp2913
I1
bag34
(g38
g39
(dp2914
VUserName
p2915
V@7bcb53a9889b7f76cbf40ceae6d7c8e908577b1caf7aae09dddb317103aa27a0
p2916
sVCity
p2917
V\u5927\u5e86
p2918
sVSnsFlag
p2919
I1
sVDisplayName
p2920
g52
sVUniFriend
p2921
I0
sVMemberCount
p2922
I0
sVOwnerUin
p2923
I0
sVMemberList
p2924
g50
sVAlias
p2925
Va13263582565
p2926
sVPYQuanPin
p2927
Vzhaoweiyi
p2928
sVSignature
p2929
V\u6211\u60f3\u505a\u4e2a\u5355\u7ec6\u80de\u751f\u7269\uff0c\u6ca1\u5fc3\u6ca1\u80ba\u5730\u6d3b\u7740......
p2930
sVRemarkPYInitial
p2931
g52
sVContactFlag
p2932
I1
sVUin
p2933
I0
sVNickName
p2934
V\u8d75\u4f1f\u4e00
p2935
sVAppAccountFlag
p2936
I0
sVVerifyFlag
p2937
I0
sVRemarkPYQuanPin
p2938
g52
sVHeadImgUrl
p2939
V/cgi-bin/mmwebwx-bin/webwxgeticon?seq=663596701&username=@7bcb53a9889b7f76cbf40ceae6d7c8e908577b1caf7aae09dddb317103aa27a0&skey=@crypt_915d192c_859cf8b7c20c6eeafe0c834301ece725
p2940
sVKeyWord
p2941
g52
sVProvince
p2942
V\u9ed1\u9f99\u6c5f
p2943
sVPYInitial
p2944
VZWY
p2945
sVRemarkName
p2946
g52
sVIsOwner
p2947
I0
sVSex
p2948
I1
sVStarFriend
p2949
I0
sVHideInputBarFlag
p2950
I0
sVChatRoomId
p2951
I0
sVEncryChatRoomId
p2952
g52
sVAttrStatus
p2953
I102437
sVStatues
p2954
I0
stp2955
Rp2956
I1
bag34
(g38
g39
(dp2957
VUserName
p2958
V@74bbb30374432d3d7af1a552215674d36a2aa0303af976269cee0ade3638207c
p2959
sVCity
p2960
g52
sVSnsFlag
p2961
I17
sVDisplayName
p2962
g52
sVUniFriend
p2963
I0
sVMemberCount
p2964
I0
sVOwnerUin
p2965
I0
sVMemberList
p2966
g50
sVAlias
p2967
Vduanqn96
p2968
sVPYQuanPin
p2969
VQ
p2970
sVSignature
p2971
VYou see, but you do not observe. The distinction is clear.
p2972
sVRemarkPYInitial
p2973
VDQN
p2974
sVContactFlag
p2975
I3
sVUin
p2976
I0
sVNickName
p2977
g2970
sVAppAccountFlag
p2978
I0
sVVerifyFlag
p2979
I0
sVRemarkPYQuanPin
p2980
Vduanqingnan
p2981
sVHeadImgUrl
p2982
V/cgi-bin/mmwebwx-bin/webwxgeticon?seq=657442203&username=@74bbb30374432d3d7af1a552215674d36a2aa0303af976269cee0ade3638207c&skey=@crypt_915d192c_859cf8b7c20c6eeafe0c834301ece725
p2983
sVKeyWord
p2984
g52
sVProvince
p2985
VKepulauan Bangka Belitung
p2986
sVPYInitial
p2987
g2970
sVRemarkName
p2988
V\u6bb5\u6e05\u6960
p2989
sVIsOwner
p2990
I0
sVSex
p2991
I1
sVStarFriend
p2992
I0
sVHideInputBarFlag
p2993
I0
sVChatRoomId
p2994
I0
sVEncryChatRoomId
p2995
g52
sVAttrStatus
p2996
I98855
sVStatues
p2997
I0
stp2998
Rp2999
I1
bag34
(g38
g39
(dp3000
VUserName
p3001
V@bed102fabdd3602bfba4503752d454032fd8f725b80fb928abdd8ec2939579a9
p3002
sVCity
p3003
V\u6d77\u6dc0
p3004
sVSnsFlag
p3005
I49
sVDisplayName
p3006
g52
sVUniFriend
p3007
I0
sVMemberCount
p3008
I0
sVOwnerUin
p3009
I0
sVMemberList
p3010
g50
sVAlias
p3011
Vzhou_xianda
p3012
sVPYQuanPin
p3013
Vzhouxianda
p3014
sVSignature
p3015
Vhate the sin, love the sinner
p3016
sVRemarkPYInitial
p3017
g52
sVContactFlag
p3018
I8195
sVUin
p3019
I0
sVNickName
p3020
V\u5468\u5148\u8fbe
p3021
sVAppAccountFlag
p3022
I0
sVVerifyFlag
p3023
I0
sVRemarkPYQuanPin
p3024
g52
sVHeadImgUrl
p3025
V/cgi-bin/mmwebwx-bin/webwxgeticon?seq=663595440&username=@bed102fabdd3602bfba4503752d454032fd8f725b80fb928abdd8ec2939579a9&skey=@crypt_915d192c_859cf8b7c20c6eeafe0c834301ece725
p3026
sVKeyWord
p3027
g52
sVProvince
p3028
V\u5317\u4eac
p3029
sVPYInitial
p3030
VZXD
p3031
sVRemarkName
p3032
g52
sVIsOwner
p3033
I0
sVSex
p3034
I1
sVStarFriend
p3035
I0
sVHideInputBarFlag
p3036
I0
sVChatRoomId
p3037
I0
sVEncryChatRoomId
p3038
g52
sVAttrStatus
p3039
I98341
sVStatues
p3040
I0
stp3041
Rp3042
I1
bag34
(g38
g39
(dp3043
VUserName
p3044
V@b50e994209f617cfb44e70888eb2b0e73db16b39c7bfe05b68fd7558db85cf16
p3045
sVCity
p3046
g52
sVSnsFlag
p3047
I17
sVDisplayName
p3048
g52
sVUniFriend
p3049
I0
sVMemberCount
p3050
I0
sVOwnerUin
p3051
I0
sVMemberList
p3052
g50
sVAlias
p3053
VVigintillion
p3054
sVPYQuanPin
p3055
Vbaiminhao
p3056
sVSignature
p3057
g52
sVRemarkPYInitial
p3058
g52
sVContactFlag
p3059
I3
sVUin
p3060
I0
sVNickName
p3061
V\u67cf\u65fb\u7693
p3062
sVAppAccountFlag
p3063
I0
sVVerifyFlag
p3064
I0
sVRemarkPYQuanPin
p3065
g52
sVHeadImgUrl
p3066
V/cgi-bin/mmwebwx-bin/webwxgeticon?seq=663594778&username=@b50e994209f617cfb44e70888eb2b0e73db16b39c7bfe05b68fd7558db85cf16&skey=@crypt_915d192c_859cf8b7c20c6eeafe0c834301ece725
p3067
sVKeyWord
p3068
g52
sVProvince
p3069
g52
sVPYInitial
p3070
VBMH
p3071
sVRemarkName
p3072
g52
sVIsOwner
p3073
I0
sVSex
p3074
I0
sVStarFriend
p3075
I0
sVHideInputBarFlag
p3076
I0
sVChatRoomId
p3077
I0
sVEncryChatRoomId
p3078
g52
sVAttrStatus
p3079
I33783845
sVStatues
p3080
I0
stp3081
Rp3082
I1
bag34
(g38
g39
(dp3083
VUserName
p3084
V@e290af393f3efd5410c1e8de0bcba62ddc5dc03b660b97ef52426bed6dad1796
p3085
sVCity
p3086
V\u6d77\u6dc0
p3087
sVSnsFlag
p3088
I49
sVDisplayName
p3089
g52
sVUniFriend
p3090
I0
sVMemberCount
p3091
I0
sVOwnerUin
p3092
I0
sVMemberList
p3093
g50
sVAlias
p3094
VShenzhe_Stella
p3095
sVPYQuanPin
p3096
Vxiaoshenshen
p3097
sVSignature
p3098
V(\u0e51\u02c3\u0336\u0348\u0300 \u1d17 \u02c2\u0336\u0348\u0301)\u0648\u2727
p3099
sVRemarkPYInitial
p3100
g52
sVContactFlag
p3101
I8195
sVUin
p3102
I0
sVNickName
p3103
V\u5c0f\u7533\u7533
p3104
sVAppAccountFlag
p3105
I0
sVVerifyFlag
p3106
I0
sVRemarkPYQuanPin
p3107
g52
sVHeadImgUrl
p3108
V/cgi-bin/mmwebwx-bin/webwxgeticon?seq=663594362&username=@e290af393f3efd5410c1e8de0bcba62ddc5dc03b660b97ef52426bed6dad1796&skey=@crypt_915d192c_859cf8b7c20c6eeafe0c834301ece725
p3109
sVKeyWord
p3110
g52
sVProvince
p3111
V\u5317\u4eac
p3112
sVPYInitial
p3113
VXSS
p3114
sVRemarkName
p3115
g52
sVIsOwner
p3116
I0
sVSex
p3117
I2
sVStarFriend
p3118
I0
sVHideInputBarFlag
p3119
I0
sVChatRoomId
p3120
I0
sVEncryChatRoomId
p3121
g52
sVAttrStatus
p3122
I79615
sVStatues
p3123
I0
stp3124
Rp3125
I1
bag34
(g38
g39
(dp3126
VUserName
p3127
V@1cffa43a469c43d9b0e576d6ca6d99943f21e98992d23795a47b58e726d6849b
p3128
sVCity
p3129
V\u6d77\u6dc0
p3130
sVSnsFlag
p3131
I49
sVDisplayName
p3132
g52
sVUniFriend
p3133
I0
sVMemberCount
p3134
I0
sVOwnerUin
p3135
I0
sVMemberList
p3136
g50
sVAlias
p3137
Vguoyuming1051086798
p3138
sVPYQuanPin
p3139
VGGGGGyuming
p3140
sVSignature
p3141
g52
sVRemarkPYInitial
p3142
VGUOYUMING
p3143
sVContactFlag
p3144
I3
sVUin
p3145
I0
sVNickName
p3146
VGGGGGyuming
p3147
sVAppAccountFlag
p3148
I0
sVVerifyFlag
p3149
I0
sVRemarkPYQuanPin
p3150
Vguoyuming
p3151
sVHeadImgUrl
p3152
V/cgi-bin/mmwebwx-bin/webwxgeticon?seq=663597169&username=@1cffa43a469c43d9b0e576d6ca6d99943f21e98992d23795a47b58e726d6849b&skey=@crypt_915d192c_859cf8b7c20c6eeafe0c834301ece725
p3153
sVKeyWord
p3154
g52
sVProvince
p3155
V\u5317\u4eac
p3156
sVPYInitial
p3157
VGGGGGYUMING
p3158
sVRemarkName
p3159
Vguoyuming
p3160
sVIsOwner
p3161
I0
sVSex
p3162
I2
sVStarFriend
p3163
I0
sVHideInputBarFlag
p3164
I0
sVChatRoomId
p3165
I0
sVEncryChatRoomId
p3166
g52
sVAttrStatus
p3167
I113765
sVStatues
p3168
I0
stp3169
Rp3170
I1
bag34
(g38
g39
(dp3171
VUserName
p3172
V@078c9e4d4c6e20e599357fb6d8dc4e74ef24b9f615d4d07cd384a24853c54fc8
p3173
sVCity
p3174
g52
sVSnsFlag
p3175
I1
sVDisplayName
p3176
g52
sVUniFriend
p3177
I0
sVMemberCount
p3178
I0
sVOwnerUin
p3179
I0
sVMemberList
p3180
g50
sVAlias
p3181
g52
sVPYQuanPin
p3182
Vyaoyuan
p3183
sVSignature
p3184
g52
sVRemarkPYInitial
p3185
VYY
p3186
sVContactFlag
p3187
I1
sVUin
p3188
I0
sVNickName
p3189
V\u59da\u8fdc
p3190
sVAppAccountFlag
p3191
I0
sVVerifyFlag
p3192
I0
sVRemarkPYQuanPin
p3193
Vyaoyuan
p3194
sVHeadImgUrl
p3195
V/cgi-bin/mmwebwx-bin/webwxgeticon?seq=663597175&username=@078c9e4d4c6e20e599357fb6d8dc4e74ef24b9f615d4d07cd384a24853c54fc8&skey=@crypt_915d192c_859cf8b7c20c6eeafe0c834301ece725
p3196
sVKeyWord
p3197
g52
sVProvince
p3198
g52
sVPYInitial
p3199
VYY
p3200
sVRemarkName
p3201
V\u59da\u8fdc
p3202
sVIsOwner
p3203
I0
sVSex
p3204
I0
sVStarFriend
p3205
I0
sVHideInputBarFlag
p3206
I0
sVChatRoomId
p3207
I0
sVEncryChatRoomId
p3208
g52
sVAttrStatus
p3209
I110693
sVStatues
p3210
I0
stp3211
Rp3212
I1
bag34
(g38
g39
(dp3213
VUserName
p3214
V@3c60dbea32175248ae7030765a17df84
p3215
sVCity
p3216
V\u6d77\u6dc0
p3217
sVSnsFlag
p3218
I49
sVDisplayName
p3219
g52
sVUniFriend
p3220
I0
sVMemberCount
p3221
I0
sVOwnerUin
p3222
I0
sVMemberList
p3223
g50
sVAlias
p3224
g52
sVPYQuanPin
p3225
Vyuhan
p3226
sVSignature
p3227
V\u6211\u5c31\u662f\u6211\uff0c\u662f\u989c\u8272\u4e0d\u4e00\u6837\u7684\u70df\u706b\u3002
p3228
sVRemarkPYInitial
p3229
g52
sVContactFlag
p3230
I1
sVUin
p3231
I0
sVNickName
p3232
V\u7389\u6db5
p3233
sVAppAccountFlag
p3234
I0
sVVerifyFlag
p3235
I0
sVRemarkPYQuanPin
p3236
g52
sVHeadImgUrl
p3237
V/cgi-bin/mmwebwx-bin/webwxgeticon?seq=663597201&username=@3c60dbea32175248ae7030765a17df84&skey=@crypt_915d192c_859cf8b7c20c6eeafe0c834301ece725
p3238
sVKeyWord
p3239
Vste
p3240
sVProvince
p3241
V\u5317\u4eac
p3242
sVPYInitial
p3243
VYH
p3244
sVRemarkName
p3245
g52
sVIsOwner
p3246
I0
sVSex
p3247
I1
sVStarFriend
p3248
I0
sVHideInputBarFlag
p3249
I0
sVChatRoomId
p3250
I0
sVEncryChatRoomId
p3251
g52
sVAttrStatus
p3252
I4296743
sVStatues
p3253
I0
stp3254
Rp3255
I1
bag34
(g38
g39
(dp3256
VUserName
p3257
V@87ad72f032408d3b5292a85a31d3d17e0b20e77157481f7becb01179eb2436d7
p3258
sVCity
p3259
V\u6d77\u6dc0
p3260
sVSnsFlag
p3261
I17
sVDisplayName
p3262
g52
sVUniFriend
p3263
I0
sVMemberCount
p3264
I0
sVOwnerUin
p3265
I0
sVMemberList
p3266
g50
sVAlias
p3267
Vliangjiaju-cn
p3268
sVPYQuanPin
p3269
Vliangjiajun
p3270
sVSignature
p3271
Vyes and...
p3272
sVRemarkPYInitial
p3273
g52
sVContactFlag
p3274
I3
sVUin
p3275
I0
sVNickName
p3276
V\u6881\u5609\u9a8f
p3277
sVAppAccountFlag
p3278
I0
sVVerifyFlag
p3279
I0
sVRemarkPYQuanPin
p3280
g52
sVHeadImgUrl
p3281
V/cgi-bin/mmwebwx-bin/webwxgeticon?seq=663597247&username=@87ad72f032408d3b5292a85a31d3d17e0b20e77157481f7becb01179eb2436d7&skey=@crypt_915d192c_859cf8b7c20c6eeafe0c834301ece725
p3282
sVKeyWord
p3283
g52
sVProvince
p3284
V\u5317\u4eac
p3285
sVPYInitial
p3286
VLJJ
p3287
sVRemarkName
p3288
g52
sVIsOwner
p3289
I0
sVSex
p3290
I1
sVStarFriend
p3291
I0
sVHideInputBarFlag
p3292
I0
sVChatRoomId
p3293
I0
sVEncryChatRoomId
p3294
g52
sVAttrStatus
p3295
I4429927
sVStatues
p3296
I0
stp3297
Rp3298
I1
bag34
(g38
g39
(dp3299
VUserName
p3300
V@bfb00edacbdeaca6659c1601b21dce3a41fd3234d9b34432d36224c98f9ac94d
p3301
sVCity
p3302
V\u6d77\u6dc0
p3303
sVSnsFlag
p3304
I49
sVDisplayName
p3305
g52
sVUniFriend
p3306
I0
sVMemberCount
p3307
I0
sVOwnerUin
p3308
I0
sVMemberList
p3309
g50
sVAlias
p3310
Vgurrenlagann_
p3311
sVPYQuanPin
p3312
VFearless
p3313
sVSignature
p3314
V\u7a7a\u3082\u5fc3\u3082\u6674\u308c\u308b\u304b\u3089
p3315
sVRemarkPYInitial
p3316
g52
sVContactFlag
p3317
I3
sVUin
p3318
I0
sVNickName
p3319
VFearless
p3320
sVAppAccountFlag
p3321
I0
sVVerifyFlag
p3322
I0
sVRemarkPYQuanPin
p3323
g52
sVHeadImgUrl
p3324
V/cgi-bin/mmwebwx-bin/webwxgeticon?seq=663597249&username=@bfb00edacbdeaca6659c1601b21dce3a41fd3234d9b34432d36224c98f9ac94d&skey=@crypt_915d192c_859cf8b7c20c6eeafe0c834301ece725
p3325
sVKeyWord
p3326
g52
sVProvince
p3327
V\u5317\u4eac
p3328
sVPYInitial
p3329
VFEARLESS
p3330
sVRemarkName
p3331
g52
sVIsOwner
p3332
I0
sVSex
p3333
I1
sVStarFriend
p3334
I0
sVHideInputBarFlag
p3335
I0
sVChatRoomId
p3336
I0
sVEncryChatRoomId
p3337
g52
sVAttrStatus
p3338
I4300925
sVStatues
p3339
I0
stp3340
Rp3341
I1
bag34
(g38
g39
(dp3342
VUserName
p3343
V@6df1a9ab9034d87bddbc593b9c033948
p3344
sVCity
p3345
g52
sVSnsFlag
p3346
I49
sVDisplayName
p3347
g52
sVUniFriend
p3348
I0
sVMemberCount
p3349
I0
sVOwnerUin
p3350
I0
sVMemberList
p3351
g50
sVAlias
p3352
g52
sVPYQuanPin
p3353
Vtian
p3354
sVSignature
p3355
V\u5929\u2026
p3356
sVRemarkPYInitial
p3357
g52
sVContactFlag
p3358
I3
sVUin
p3359
I0
sVNickName
p3360
V\u5929
p3361
sVAppAccountFlag
p3362
I0
sVVerifyFlag
p3363
I0
sVRemarkPYQuanPin
p3364
g52
sVHeadImgUrl
p3365
V/cgi-bin/mmwebwx-bin/webwxgeticon?seq=663597292&username=@6df1a9ab9034d87bddbc593b9c033948&skey=@crypt_915d192c_859cf8b7c20c6eeafe0c834301ece725
p3366
sVKeyWord
p3367
Vrui
p3368
sVProvince
p3369
V\u5317\u4eac
p3370
sVPYInitial
p3371
VT
p3372
sVRemarkName
p3373
g52
sVIsOwner
p3374
I0
sVSex
p3375
I1
sVStarFriend
p3376
I0
sVHideInputBarFlag
p3377
I0
sVChatRoomId
p3378
I0
sVEncryChatRoomId
p3379
g52
sVAttrStatus
p3380
I16879037
sVStatues
p3381
I0
stp3382
Rp3383
I1
bag34
(g38
g39
(dp3384
VUserName
p3385
V@343758cc6462e36a3ca929bc29f8cbf11b3e584f99519388f8f0de3a9220310a
p3386
sVCity
p3387
V\u961c\u9633
p3388
sVSnsFlag
p3389
I1
sVDisplayName
p3390
g52
sVUniFriend
p3391
I0
sVMemberCount
p3392
I0
sVOwnerUin
p3393
I0
sVMemberList
p3394
g50
sVAlias
p3395
Vcyz_MyWeixin
p3396
sVPYQuanPin
p3397
Vchenyazheng
p3398
sVSignature
p3399
Vlet's seize the day
p3400
sVRemarkPYInitial
p3401
g52
sVContactFlag
p3402
I65539
sVUin
p3403
I0
sVNickName
p3404
V\u9648\u96c5\u6b63
p3405
sVAppAccountFlag
p3406
I0
sVVerifyFlag
p3407
I0
sVRemarkPYQuanPin
p3408
g52
sVHeadImgUrl
p3409
V/cgi-bin/mmwebwx-bin/webwxgeticon?seq=663597321&username=@343758cc6462e36a3ca929bc29f8cbf11b3e584f99519388f8f0de3a9220310a&skey=@crypt_915d192c_859cf8b7c20c6eeafe0c834301ece725
p3410
sVKeyWord
p3411
g52
sVProvince
p3412
V\u5b89\u5fbd
p3413
sVPYInitial
p3414
VCYZ
p3415
sVRemarkName
p3416
g52
sVIsOwner
p3417
I0
sVSex
p3418
I1
sVStarFriend
p3419
I0
sVHideInputBarFlag
p3420
I0
sVChatRoomId
p3421
I0
sVEncryChatRoomId
p3422
g52
sVAttrStatus
p3423
I17013181
sVStatues
p3424
I0
stp3425
Rp3426
I1
bag34
(g38
g39
(dp3427
VUserName
p3428
V@6e019cd10af7210a1126972f1b128dbfed2150ac580bd9e731bcc423fa0e1cb4
p3429
sVCity
p3430
g52
sVSnsFlag
p3431
I1
sVDisplayName
p3432
g52
sVUniFriend
p3433
I0
sVMemberCount
p3434
I0
sVOwnerUin
p3435
I0
sVMemberList
p3436
g50
sVAlias
p3437
Vykl403323661
p3438
sVPYQuanPin
p3439
VSirBoastalot
p3440
sVSignature
p3441
VIt'll all get better in time.
p3442
sVRemarkPYInitial
p3443
g52
sVContactFlag
p3444
I3
sVUin
p3445
I0
sVNickName
p3446
VSir Boast-a-lot
p3447
sVAppAccountFlag
p3448
I0
sVVerifyFlag
p3449
I0
sVRemarkPYQuanPin
p3450
g52
sVHeadImgUrl
p3451
V/cgi-bin/mmwebwx-bin/webwxgeticon?seq=648058169&username=@6e019cd10af7210a1126972f1b128dbfed2150ac580bd9e731bcc423fa0e1cb4&skey=@crypt_915d192c_859cf8b7c20c6eeafe0c834301ece725
p3452
sVKeyWord
p3453
g52
sVProvince
p3454
VZurich
p3455
sVPYInitial
p3456
VSIRBOASTALOT
p3457
sVRemarkName
p3458
g52
sVIsOwner
p3459
I0
sVSex
p3460
I1
sVStarFriend
p3461
I0
sVHideInputBarFlag
p3462
I0
sVChatRoomId
p3463
I0
sVEncryChatRoomId
p3464
g52
sVAttrStatus
p3465
I104549
sVStatues
p3466
I0
stp3467
Rp3468
I1
bag34
(g38
g39
(dp3469
VUserName
p3470
V@bdda847cbbdac5fad96b9e30e3f0bf0af36d914d07f317a46414a70e44d7daf0
p3471
sVCity
p3472
g52
sVSnsFlag
p3473
I17
sVDisplayName
p3474
g52
sVUniFriend
p3475
I0
sVMemberCount
p3476
I0
sVOwnerUin
p3477
I0
sVMemberList
p3478
g50
sVAlias
p3479
Vwangjy1687
p3480
sVPYQuanPin
p3481
Vwangjunyi
p3482
sVSignature
p3483
g52
sVRemarkPYInitial
p3484
g52
sVContactFlag
p3485
I1
sVUin
p3486
I0
sVNickName
p3487
V\u738b\u94a7\u5955
p3488
sVAppAccountFlag
p3489
I0
sVVerifyFlag
p3490
I0
sVRemarkPYQuanPin
p3491
g52
sVHeadImgUrl
p3492
V/cgi-bin/mmwebwx-bin/webwxgeticon?seq=663597348&username=@bdda847cbbdac5fad96b9e30e3f0bf0af36d914d07f317a46414a70e44d7daf0&skey=@crypt_915d192c_859cf8b7c20c6eeafe0c834301ece725
p3493
sVKeyWord
p3494
g52
sVProvince
p3495
V\u5317\u4eac
p3496
sVPYInitial
p3497
VWJY
p3498
sVRemarkName
p3499
g52
sVIsOwner
p3500
I0
sVSex
p3501
I2
sVStarFriend
p3502
I0
sVHideInputBarFlag
p3503
I0
sVChatRoomId
p3504
I0
sVEncryChatRoomId
p3505
g52
sVAttrStatus
p3506
I112127
sVStatues
p3507
I0
stp3508
Rp3509
I1
bag34
(g38
g39
(dp3510
VUserName
p3511
V@a631954959242df4109db2cb7c43e6c98ec8134678f053ef84f363fccc6dcfce
p3512
sVCity
p3513
g52
sVSnsFlag
p3514
I1
sVDisplayName
p3515
g52
sVUniFriend
p3516
I0
sVMemberCount
p3517
I0
sVOwnerUin
p3518
I0
sVMemberList
p3519
g50
sVAlias
p3520
Vwangjnsem
p3521
sVPYQuanPin
p3522
Vwangjianan
p3523
sVSignature
p3524
V\u767e\u6218\u5f52\u6765\u518d\u8bfb\u4e66
p3525
sVRemarkPYInitial
p3526
g52
sVContactFlag
p3527
I3
sVUin
p3528
I0
sVNickName
p3529
V\u738b\u4f73\u6960
p3530
sVAppAccountFlag
p3531
I0
sVVerifyFlag
p3532
I0
sVRemarkPYQuanPin
p3533
g52
sVHeadImgUrl
p3534
V/cgi-bin/mmwebwx-bin/webwxgeticon?seq=663589886&username=@a631954959242df4109db2cb7c43e6c98ec8134678f053ef84f363fccc6dcfce&skey=@crypt_915d192c_859cf8b7c20c6eeafe0c834301ece725
p3535
sVKeyWord
p3536
g52
sVProvince
p3537
g52
sVPYInitial
p3538
VWJN
p3539
sVRemarkName
p3540
g52
sVIsOwner
p3541
I0
sVSex
p3542
I1
sVStarFriend
p3543
I0
sVHideInputBarFlag
p3544
I0
sVChatRoomId
p3545
I0
sVEncryChatRoomId
p3546
g52
sVAttrStatus
p3547
I235877
sVStatues
p3548
I0
stp3549
Rp3550
I1
bag34
(g38
g39
(dp3551
VUserName
p3552
V@858e5d5654e749ff74734439276cbc486308bb77bc9228052e27cb9ade317d23
p3553
sVCity
p3554
V\u671d\u9633
p3555
sVSnsFlag
p3556
I17
sVDisplayName
p3557
g52
sVUniFriend
p3558
I0
sVMemberCount
p3559
I0
sVOwnerUin
p3560
I0
sVMemberList
p3561
g50
sVAlias
p3562
Vtansinan_1995
p3563
sVPYQuanPin
p3564
VtinyTangent
p3565
sVSignature
p3566
VMy broken wings dream of the sky.
p3567
sVRemarkPYInitial
p3568
g52
sVContactFlag
p3569
I3
sVUin
p3570
I0
sVNickName
p3571
VtinyTangent
p3572
sVAppAccountFlag
p3573
I0
sVVerifyFlag
p3574
I0
sVRemarkPYQuanPin
p3575
g52
sVHeadImgUrl
p3576
V/cgi-bin/mmwebwx-bin/webwxgeticon?seq=663591582&username=@858e5d5654e749ff74734439276cbc486308bb77bc9228052e27cb9ade317d23&skey=@crypt_915d192c_859cf8b7c20c6eeafe0c834301ece725
p3577
sVKeyWord
p3578
g52
sVProvince
p3579
V\u5317\u4eac
p3580
sVPYInitial
p3581
VTINYTANGENT
p3582
sVRemarkName
p3583
g52
sVIsOwner
p3584
I0
sVSex
p3585
I1
sVStarFriend
p3586
I0
sVHideInputBarFlag
p3587
I0
sVChatRoomId
p3588
I0
sVEncryChatRoomId
p3589
g52
sVAttrStatus
p3590
I33652773
sVStatues
p3591
I0
stp3592
Rp3593
I1
bag34
(g38
g39
(dp3594
VUserName
p3595
V@4ddc45c09f43ea890eecca3b0aa6cef5db1a04f35782a40e87d27c4197ff4f53
p3596
sVCity
p3597
g52
sVSnsFlag
p3598
I1
sVDisplayName
p3599
g52
sVUniFriend
p3600
I0
sVMemberCount
p3601
I0
sVOwnerUin
p3602
I0
sVMemberList
p3603
g50
sVAlias
p3604
Vzhouxx96
p3605
sVPYQuanPin
p3606
Vzhouxiao
p3607
sVSignature
p3608
g52
sVRemarkPYInitial
p3609
g52
sVContactFlag
p3610
I1
sVUin
p3611
I0
sVNickName
p3612
V\u5468\u7bab
p3613
sVAppAccountFlag
p3614
I0
sVVerifyFlag
p3615
I0
sVRemarkPYQuanPin
p3616
g52
sVHeadImgUrl
p3617
V/cgi-bin/mmwebwx-bin/webwxgeticon?seq=663597543&username=@4ddc45c09f43ea890eecca3b0aa6cef5db1a04f35782a40e87d27c4197ff4f53&skey=@crypt_915d192c_859cf8b7c20c6eeafe0c834301ece725
p3618
sVKeyWord
p3619
g52
sVProvince
p3620
V\u5317\u4eac
p3621
sVPYInitial
p3622
VZX
p3623
sVRemarkName
p3624
g52
sVIsOwner
p3625
I0
sVSex
p3626
I1
sVStarFriend
p3627
I0
sVHideInputBarFlag
p3628
I0
sVChatRoomId
p3629
I0
sVEncryChatRoomId
p3630
g52
sVAttrStatus
p3631
I102437
sVStatues
p3632
I0
stp3633
Rp3634
I1
bag34
(g38
g39
(dp3635
VUserName
p3636
V@7059c42cccc5b224b01bc96278b33a54
p3637
sVCity
p3638
V\u6d77\u6dc0
p3639
sVSnsFlag
p3640
I49
sVDisplayName
p3641
g52
sVUniFriend
p3642
I0
sVMemberCount
p3643
I0
sVOwnerUin
p3644
I0
sVMemberList
p3645
g50
sVAlias
p3646
g52
sVPYQuanPin
p3647
Vgouyouxianzi
p3648
sVSignature
p3649
V\u56e7\u6728
p3650
sVRemarkPYInitial
p3651
g52
sVContactFlag
p3652
I3
sVUin
p3653
I0
sVNickName
p3654
V\u72d7\u4f18\u4ed9\u5b50
p3655
sVAppAccountFlag
p3656
I0
sVVerifyFlag
p3657
I0
sVRemarkPYQuanPin
p3658
g52
sVHeadImgUrl
p3659
V/cgi-bin/mmwebwx-bin/webwxgeticon?seq=663597553&username=@7059c42cccc5b224b01bc96278b33a54&skey=@crypt_915d192c_859cf8b7c20c6eeafe0c834301ece725
p3660
sVKeyWord
p3661
Vsun
p3662
sVProvince
p3663
V\u5317\u4eac
p3664
sVPYInitial
p3665
VGYXZ
p3666
sVRemarkName
p3667
g52
sVIsOwner
p3668
I0
sVSex
p3669
I2
sVStarFriend
p3670
I0
sVHideInputBarFlag
p3671
I0
sVChatRoomId
p3672
I0
sVEncryChatRoomId
p3673
g52
sVAttrStatus
p3674
I99367
sVStatues
p3675
I0
stp3676
Rp3677
I1
bag34
(g38
g39
(dp3678
VUserName
p3679
V@591182e4e36e0c6d62f26c7e27f60cc952edca1bc9d7a4d331b9fa84a87ada0b
p3680
sVCity
p3681
g52
sVSnsFlag
p3682
I17
sVDisplayName
p3683
g52
sVUniFriend
p3684
I0
sVMemberCount
p3685
I0
sVOwnerUin
p3686
I0
sVMemberList
p3687
g50
sVAlias
p3688
Vmini_minyi_
p3689
sVPYQuanPin
p3690
Vliuminyi
p3691
sVSignature
p3692
g52
sVRemarkPYInitial
p3693
g52
sVContactFlag
p3694
I65539
sVUin
p3695
I0
sVNickName
p3696
V\u5218\u654f\u6021
p3697
sVAppAccountFlag
p3698
I0
sVVerifyFlag
p3699
I0
sVRemarkPYQuanPin
p3700
g52
sVHeadImgUrl
p3701
V/cgi-bin/mmwebwx-bin/webwxgeticon?seq=663597558&username=@591182e4e36e0c6d62f26c7e27f60cc952edca1bc9d7a4d331b9fa84a87ada0b&skey=@crypt_915d192c_859cf8b7c20c6eeafe0c834301ece725
p3702
sVKeyWord
p3703
g52
sVProvince
p3704
g52
sVPYInitial
p3705
VLMY
p3706
sVRemarkName
p3707
g52
sVIsOwner
p3708
I0
sVSex
p3709
I0
sVStarFriend
p3710
I0
sVHideInputBarFlag
p3711
I0
sVChatRoomId
p3712
I0
sVEncryChatRoomId
p3713
g52
sVAttrStatus
p3714
I66853
sVStatues
p3715
I0
stp3716
Rp3717
I1
bag34
(g38
g39
(dp3718
VUserName
p3719
V@be45c4b9f96f1afdee6bfe7cc0c956a9decf90d403681e185a83a17907734066
p3720
sVCity
p3721
V\u6d77\u6dc0
p3722
sVSnsFlag
p3723
I49
sVDisplayName
p3724
g52
sVUniFriend
p3725
I0
sVMemberCount
p3726
I0
sVOwnerUin
p3727
I0
sVMemberList
p3728
g50
sVAlias
p3729
Vsun_light_ing
p3730
sVPYQuanPin
p3731
Vshenguangyao
p3732
sVSignature
p3733
VSunshine in the midnight
p3734
sVRemarkPYInitial
p3735
g52
sVContactFlag
p3736
I3
sVUin
p3737
I0
sVNickName
p3738
V\u6c88\u5149\u8000
p3739
sVAppAccountFlag
p3740
I0
sVVerifyFlag
p3741
I0
sVRemarkPYQuanPin
p3742
g52
sVHeadImgUrl
p3743
V/cgi-bin/mmwebwx-bin/webwxgeticon?seq=663582443&username=@be45c4b9f96f1afdee6bfe7cc0c956a9decf90d403681e185a83a17907734066&skey=@crypt_915d192c_859cf8b7c20c6eeafe0c834301ece725
p3744
sVKeyWord
p3745
g52
sVProvince
p3746
V\u5317\u4eac
p3747
sVPYInitial
p3748
VSGY
p3749
sVRemarkName
p3750
g52
sVIsOwner
p3751
I0
sVSex
p3752
I1
sVStarFriend
p3753
I0
sVHideInputBarFlag
p3754
I0
sVChatRoomId
p3755
I0
sVEncryChatRoomId
p3756
g52
sVAttrStatus
p3757
I4268071
sVStatues
p3758
I0
stp3759
Rp3760
I1
bag34
(g38
g39
(dp3761
VUserName
p3762
V@3ebb25d8068bf5e4fc78a2e6ec5f3922
p3763
sVCity
p3764
g52
sVSnsFlag
p3765
I17
sVDisplayName
p3766
g52
sVUniFriend
p3767
I0
sVMemberCount
p3768
I0
sVOwnerUin
p3769
I0
sVMemberList
p3770
g50
sVAlias
p3771
g52
sVPYQuanPin
p3772
VxiangxiangqiuguoN2
p3773
sVSignature
p3774
V\u3084\u3063\u306f\u308a\u3000\u3084\u3081\u305f\u307b\u3046\u304c\u826f\u3044\u306a\u3041
p3775
sVRemarkPYInitial
p3776
g52
sVContactFlag
p3777
I3
sVUin
p3778
I0
sVNickName
p3779
V\u7fd4\u7fd4\u6c42\u8fc7 N2
p3780
sVAppAccountFlag
p3781
I0
sVVerifyFlag
p3782
I0
sVRemarkPYQuanPin
p3783
g52
sVHeadImgUrl
p3784
V/cgi-bin/mmwebwx-bin/webwxgeticon?seq=663597892&username=@3ebb25d8068bf5e4fc78a2e6ec5f3922&skey=@crypt_915d192c_859cf8b7c20c6eeafe0c834301ece725
p3785
sVKeyWord
p3786
Vshy
p3787
sVProvince
p3788
VHamilton
p3789
sVPYInitial
p3790
VXXQGN2
p3791
sVRemarkName
p3792
g52
sVIsOwner
p3793
I0
sVSex
p3794
I1
sVStarFriend
p3795
I0
sVHideInputBarFlag
p3796
I0
sVChatRoomId
p3797
I0
sVEncryChatRoomId
p3798
g52
sVAttrStatus
p3799
I50444391
sVStatues
p3800
I0
stp3801
Rp3802
I1
bag34
(g38
g39
(dp3803
VUserName
p3804
V@4091a048461d26060d0cf2801dff8aac257b8eb93ea5d687f65f2a5d55b21d77
p3805
sVCity
p3806
g52
sVSnsFlag
p3807
I49
sVDisplayName
p3808
g52
sVUniFriend
p3809
I0
sVMemberCount
p3810
I0
sVOwnerUin
p3811
I0
sVMemberList
p3812
g50
sVAlias
p3813
Vhexixun0910
p3814
sVPYQuanPin
p3815
Vxunyueban
p3816
sVSignature
p3817
g52
sVRemarkPYInitial
p3818
g52
sVContactFlag
p3819
I3
sVUin
p3820
I0
sVNickName
p3821
V\u5dfd\u6708\u534a
p3822
sVAppAccountFlag
p3823
I0
sVVerifyFlag
p3824
I0
sVRemarkPYQuanPin
p3825
g52
sVHeadImgUrl
p3826
V/cgi-bin/mmwebwx-bin/webwxgeticon?seq=663597899&username=@4091a048461d26060d0cf2801dff8aac257b8eb93ea5d687f65f2a5d55b21d77&skey=@crypt_915d192c_859cf8b7c20c6eeafe0c834301ece725
p3827
sVKeyWord
p3828
g52
sVProvince
p3829
V\u5317\u4eac
p3830
sVPYInitial
p3831
VXYB
p3832
sVRemarkName
p3833
g52
sVIsOwner
p3834
I0
sVSex
p3835
I1
sVStarFriend
p3836
I0
sVHideInputBarFlag
p3837
I0
sVChatRoomId
p3838
I0
sVEncryChatRoomId
p3839
g52
sVAttrStatus
p3840
I102501
sVStatues
p3841
I0
stp3842
Rp3843
I1
bag34
(g38
g39
(dp3844
VUserName
p3845
V@ab992e0784da0f5ad4d6f383c18959375b9da1c43d5a3c19f91a78899e9e54b9
p3846
sVCity
p3847
V\u6d77\u6dc0
p3848
sVSnsFlag
p3849
I17
sVDisplayName
p3850
g52
sVUniFriend
p3851
I0
sVMemberCount
p3852
I0
sVOwnerUin
p3853
I0
sVMemberList
p3854
g50
sVAlias
p3855
VmediaMYM
p3856
sVPYQuanPin
p3857
Vyimingming
p3858
sVSignature
p3859
g52
sVRemarkPYInitial
p3860
g52
sVContactFlag
p3861
I3
sVUin
p3862
I0
sVNickName
p3863
V\u4e00\u8317\u8317
p3864
sVAppAccountFlag
p3865
I0
sVVerifyFlag
p3866
I0
sVRemarkPYQuanPin
p3867
g52
sVHeadImgUrl
p3868
V/cgi-bin/mmwebwx-bin/webwxgeticon?seq=657442989&username=@ab992e0784da0f5ad4d6f383c18959375b9da1c43d5a3c19f91a78899e9e54b9&skey=@crypt_915d192c_859cf8b7c20c6eeafe0c834301ece725
p3869
sVKeyWord
p3870
g52
sVProvince
p3871
V\u5317\u4eac
p3872
sVPYInitial
p3873
VYMM
p3874
sVRemarkName
p3875
g52
sVIsOwner
p3876
I0
sVSex
p3877
I2
sVStarFriend
p3878
I0
sVHideInputBarFlag
p3879
I0
sVChatRoomId
p3880
I0
sVEncryChatRoomId
p3881
g52
sVAttrStatus
p3882
I33656871
sVStatues
p3883
I0
stp3884
Rp3885
I1
bag34
(g38
g39
(dp3886
VUserName
p3887
V@d888a2ea1361391ecd03a2a5f308bdf1d69be2a73b6c45fdce12153e92d2783a
p3888
sVCity
p3889
V\u6d77\u6dc0
p3890
sVSnsFlag
p3891
I17
sVDisplayName
p3892
g52
sVUniFriend
p3893
I0
sVMemberCount
p3894
I0
sVOwnerUin
p3895
I0
sVMemberList
p3896
g50
sVAlias
p3897
Vcyyc6002
p3898
sVPYQuanPin
p3899
Vchengyang
p3900
sVSignature
p3901
V\u4f60\u8bf4\u4f60\u653e\u5f03\u4e86\u516b\u6708
p3902
sVRemarkPYInitial
p3903
g52
sVContactFlag
p3904
I3
sVUin
p3905
I0
sVNickName
p3906
V\u7a0b\u6768
p3907
sVAppAccountFlag
p3908
I0
sVVerifyFlag
p3909
I0
sVRemarkPYQuanPin
p3910
g52
sVHeadImgUrl
p3911
V/cgi-bin/mmwebwx-bin/webwxgeticon?seq=663598204&username=@d888a2ea1361391ecd03a2a5f308bdf1d69be2a73b6c45fdce12153e92d2783a&skey=@crypt_915d192c_859cf8b7c20c6eeafe0c834301ece725
p3912
sVKeyWord
p3913
g52
sVProvince
p3914
V\u5317\u4eac
p3915
sVPYInitial
p3916
VCY
p3917
sVRemarkName
p3918
g52
sVIsOwner
p3919
I0
sVSex
p3920
I2
sVStarFriend
p3921
I0
sVHideInputBarFlag
p3922
I0
sVChatRoomId
p3923
I0
sVEncryChatRoomId
p3924
g52
sVAttrStatus
p3925
I102501
sVStatues
p3926
I0
stp3927
Rp3928
I1
bag34
(g38
g39
(dp3929
VUserName
p3930
V@87d564fb8c4aafe1e87d7c4d391fbbd95fdbb7e5fc7ebe884b2598a439f790cb
p3931
sVCity
p3932
g52
sVSnsFlag
p3933
I49
sVDisplayName
p3934
g52
sVUniFriend
p3935
I0
sVMemberCount
p3936
I0
sVOwnerUin
p3937
I0
sVMemberList
p3938
g50
sVAlias
p3939
g52
sVPYQuanPin
p3940
Vgaohaotian
p3941
sVSignature
p3942
g52
sVRemarkPYInitial
p3943
g52
sVContactFlag
p3944
I1
sVUin
p3945
I0
sVNickName
p3946
V\u9ad8\u7693\u5929
p3947
sVAppAccountFlag
p3948
I0
sVVerifyFlag
p3949
I0
sVRemarkPYQuanPin
p3950
g52
sVHeadImgUrl
p3951
V/cgi-bin/mmwebwx-bin/webwxgeticon?seq=657429659&username=@87d564fb8c4aafe1e87d7c4d391fbbd95fdbb7e5fc7ebe884b2598a439f790cb&skey=@crypt_915d192c_859cf8b7c20c6eeafe0c834301ece725
p3952
sVKeyWord
p3953
g52
sVProvince
p3954
g52
sVPYInitial
p3955
VGHT
p3956
sVRemarkName
p3957
g52
sVIsOwner
p3958
I0
sVSex
p3959
I0
sVStarFriend
p3960
I0
sVHideInputBarFlag
p3961
I0
sVChatRoomId
p3962
I0
sVEncryChatRoomId
p3963
g52
sVAttrStatus
p3964
I98341
sVStatues
p3965
I0
stp3966
Rp3967
I1
bag34
(g38
g39
(dp3968
VUserName
p3969
V@8147a3f1649e2d59f3594921b9feb2a7
p3970
sVCity
p3971
g52
sVSnsFlag
p3972
I49
sVDisplayName
p3973
g52
sVUniFriend
p3974
I0
sVMemberCount
p3975
I0
sVOwnerUin
p3976
I0
sVMemberList
p3977
g50
sVAlias
p3978
g52
sVPYQuanPin
p3979
Vzhituanmiao
p3980
sVSignature
p3981
V\u52aa\u529b \u611f\u8b1d \u7b11\u9854 \u3046\u3061\u3089\u306f\u4e43\u6728\u5742\u4e0a\u308a\u574246
p3982
sVRemarkPYInitial
p3983
g52
sVContactFlag
p3984
I2051
sVUin
p3985
I0
sVNickName
p3986
V\u7eb8\u56e2\u55b5
p3987
sVAppAccountFlag
p3988
I0
sVVerifyFlag
p3989
I0
sVRemarkPYQuanPin
p3990
g52
sVHeadImgUrl
p3991
V/cgi-bin/mmwebwx-bin/webwxgeticon?seq=663598876&username=@8147a3f1649e2d59f3594921b9feb2a7&skey=@crypt_915d192c_859cf8b7c20c6eeafe0c834301ece725
p3992
sVKeyWord
p3993
Vibu
p3994
sVProvince
p3995
VParis
p3996
sVPYInitial
p3997
VZTM
p3998
sVRemarkName
p3999
g52
sVIsOwner
p4000
I0
sVSex
p4001
I2
sVStarFriend
p4002
I0
sVHideInputBarFlag
p4003
I0
sVChatRoomId
p4004
I0
sVEncryChatRoomId
p4005
g52
sVAttrStatus
p4006
I99263
sVStatues
p4007
I0
stp4008
Rp4009
I1
bag34
(g38
g39
(dp4010
VUserName
p4011
V@8228073abf692734aed196c6612e7b3763d3c8f928351541dc1973ea45ca075f
p4012
sVCity
p4013
g52
sVSnsFlag
p4014
I1
sVDisplayName
p4015
g52
sVUniFriend
p4016
I0
sVMemberCount
p4017
I0
sVOwnerUin
p4018
I0
sVMemberList
p4019
g50
sVAlias
p4020
Vwwjpromise
p4021
sVPYQuanPin
p4022
Vwwjpromise
p4023
sVSignature
p4024
g52
sVRemarkPYInitial
p4025
g52
sVContactFlag
p4026
I8195
sVUin
p4027
I0
sVNickName
p4028
Vwwjpromise
p4029
sVAppAccountFlag
p4030
I0
sVVerifyFlag
p4031
I0
sVRemarkPYQuanPin
p4032
g52
sVHeadImgUrl
p4033
V/cgi-bin/mmwebwx-bin/webwxgeticon?seq=645190148&username=@8228073abf692734aed196c6612e7b3763d3c8f928351541dc1973ea45ca075f&skey=@crypt_915d192c_859cf8b7c20c6eeafe0c834301ece725
p4034
sVKeyWord
p4035
g52
sVProvince
p4036
g52
sVPYInitial
p4037
VWWJPROMISE
p4038
sVRemarkName
p4039
g52
sVIsOwner
p4040
I0
sVSex
p4041
I1
sVStarFriend
p4042
I0
sVHideInputBarFlag
p4043
I0
sVChatRoomId
p4044
I0
sVEncryChatRoomId
p4045
g52
sVAttrStatus
p4046
I4199
sVStatues
p4047
I0
stp4048
Rp4049
I1
bag34
(g38
g39
(dp4050
VUserName
p4051
V@ee65ebbabc2a26226586ec4f1896b7768fca1423637ab6c37ea3b8d8efea889b
p4052
sVCity
p4053
V\u6d77\u6dc0
p4054
sVSnsFlag
p4055
I49
sVDisplayName
p4056
g52
sVUniFriend
p4057
I0
sVMemberCount
p4058
I0
sVOwnerUin
p4059
I0
sVMemberList
p4060
g50
sVAlias
p4061
Vcenyk1230
p4062
sVPYQuanPin
p4063
Vmoyuxiaoxuan
p4064
sVSignature
p4065
V\u5403\u996d\u7761\u89c9\u4e0a\u8bfe\u8dd1\u6b65\u5199\u4f5c\u4e1a\u5199\u4ee3\u7801\u5199\u62a5\u544a\u770bpaper
p4066
sVRemarkPYInitial
p4067
VCYK
p4068
sVContactFlag
p4069
I3
sVUin
p4070
I0
sVNickName
p4071
V\u58a8\u96e8\u8427\u8f69
p4072
sVAppAccountFlag
p4073
I0
sVVerifyFlag
p4074
I0
sVRemarkPYQuanPin
p4075
Vcenyukuo
p4076
sVHeadImgUrl
p4077
V/cgi-bin/mmwebwx-bin/webwxgeticon?seq=663594251&username=@ee65ebbabc2a26226586ec4f1896b7768fca1423637ab6c37ea3b8d8efea889b&skey=@crypt_915d192c_859cf8b7c20c6eeafe0c834301ece725
p4078
sVKeyWord
p4079
g52
sVProvince
p4080
V\u5317\u4eac
p4081
sVPYInitial
p4082
VMYXX
p4083
sVRemarkName
p4084
V\u5c91\u5b87\u9614
p4085
sVIsOwner
p4086
I0
sVSex
p4087
I1
sVStarFriend
p4088
I0
sVHideInputBarFlag
p4089
I0
sVChatRoomId
p4090
I0
sVEncryChatRoomId
p4091
g52
sVAttrStatus
p4092
I229479
sVStatues
p4093
I0
stp4094
Rp4095
I1
bag34
(g38
g39
(dp4096
VUserName
p4097
V@5ee3c841c006938bd02073b4cd5dd43942ed13b6fab9b517d0d46f883624fd8a
p4098
sVCity
p4099
VPittsburgh City
p4100
sVSnsFlag
p4101
I1
sVDisplayName
p4102
g52
sVUniFriend
p4103
I0
sVMemberCount
p4104
I0
sVOwnerUin
p4105
I0
sVMemberList
p4106
g50
sVAlias
p4107
Vlbch96314
p4108
sVPYQuanPin
p4109
VMrPolaris
p4110
sVSignature
p4111
VFor every step there's no need looking back.
p4112
sVRemarkPYInitial
p4113
g52
sVContactFlag
p4114
I3
sVUin
p4115
I0
sVNickName
p4116
VMr. Polaris
p4117
sVAppAccountFlag
p4118
I0
sVVerifyFlag
p4119
I0
sVRemarkPYQuanPin
p4120
g52
sVHeadImgUrl
p4121
V/cgi-bin/mmwebwx-bin/webwxgeticon?seq=657441425&username=@5ee3c841c006938bd02073b4cd5dd43942ed13b6fab9b517d0d46f883624fd8a&skey=@crypt_915d192c_859cf8b7c20c6eeafe0c834301ece725
p4122
sVKeyWord
p4123
g52
sVProvince
p4124
VPennsylvania
p4125
sVPYInitial
p4126
VMRPOLARIS
p4127
sVRemarkName
p4128
g52
sVIsOwner
p4129
I0
sVSex
p4130
I1
sVStarFriend
p4131
I0
sVHideInputBarFlag
p4132
I0
sVChatRoomId
p4133
I0
sVEncryChatRoomId
p4134
g52
sVAttrStatus
p4135
I136125
sVStatues
p4136
I0
stp4137
Rp4138
I1
batp4139
Rp4140
I1
bsS'chatroomList'
p4141
g34
(g35
g36
(lp4142
g34
(citchat.storage.templates
Chatroom
p4143
g39
(dp4144
VUserName
p4145
V@@64a1b390801786579bbcd2822d864a8d8eac6aa4c3da7f65ea63e32efa43b163
p4146
sVCity
p4147
g52
sVDisplayName
p4148
g52
sVUniFriend
p4149
I0
sS'Self'
p4150
g34
(g38
g39
(dp4151
g41
g31
sg42
g43
sg44
g43
sg45
I0
sg46
I0
sg47
g34
(g35
g36
(lp4152
tp4153
Rp4154
I1
bsg51
g52
sg53
g52
sg54
I1463552906
sg55
I0
sg56
I0
sg57
g43
sg58
g43
sg59
g52
sg60
g52
sg61
I0
sg62
I0
sg63
I1
sg64
g43
sg65
I0
sg66
I1
sg67
I0
sg68
I3
sg69
g43
sg70
g71
sg72
I0
sg73
g74
sg75
g52
sg76
g77
sg78
I1
sg79
I0
sg80
I0
stp4155
Rp4156
I1
bsVMemberList
p4157
g34
(g35
g36
(lp4158
tp4159
Rp4160
I1
bsVPYQuanPin
p4161
g52
sVRemarkPYInitial
p4162
g52
sVSex
p4163
I0
sVAppAccountFlag
p4164
I0
sVVerifyFlag
p4165
I0
sVProvince
p4166
g52
sVKeyWord
p4167
g52
sVRemarkName
p4168
g52
sVPYInitial
p4169
g52
sVIsOwner
p4170
I0
sVChatRoomId
p4171
I0
sVHideInputBarFlag
p4172
I0
sVEncryChatRoomId
p4173
g52
sVAttrStatus
p4174
I0
sVSnsFlag
p4175
I0
sVMemberCount
p4176
I169
sVOwnerUin
p4177
I0
sVAlias
p4178
g52
sS'IsAdmin'
p4179
NsVSignature
p4180
g52
sVContactFlag
p4181
I2
sVNickName
p4182
V\u9152\u8086\u5389\u5bb3-\u8ba14\u5e74\u7ea7\u5927\u7fa4
p4183
sVRemarkPYQuanPin
p4184
g52
sVHeadImgUrl
p4185
V/cgi-bin/mmwebwx-bin/webwxgetheadimg?seq=663594572&username=@@64a1b390801786579bbcd2822d864a8d8eac6aa4c3da7f65ea63e32efa43b163&skey=@crypt_915d192c_859cf8b7c20c6eeafe0c834301ece725
p4186
sVUin
p4187
I0
sVStarFriend
p4188
I0
sVStatues
p4189
I0
stp4190
Rp4191
I1
bag34
(g4143
g39
(dp4192
VUserName
p4193
V@@42a915c4f6f6a16db7b91428708e1b6476d39806a992605677fe2ae565775635
p4194
sVCity
p4195
g52
sVDisplayName
p4196
g52
sVUniFriend
p4197
I0
sg4150
g34
(g38
g39
(dp4198
g41
g31
sg42
g43
sg44
g43
sg45
I0
sg46
I0
sg47
g34
(g35
g36
(lp4199
tp4200
Rp4201
I1
bsg51
g52
sg53
g52
sg54
I1463552906
sg55
I0
sg56
I0
sg57
g43
sg58
g43
sg59
g52
sg60
g52
sg61
I0
sg62
I0
sg63
I1
sg64
g43
sg65
I0
sg66
I1
sg67
I0
sg68
I3
sg69
g43
sg70
g71
sg72
I0
sg73
g74
sg75
g52
sg76
g77
sg78
I1
sg79
I0
sg80
I0
stp4202
Rp4203
I1
bsVMemberList
p4204
g34
(g35
g36
(lp4205
tp4206
Rp4207
I1
bsVPYQuanPin
p4208
g52
sVRemarkPYInitial
p4209
g52
sVSex
p4210
I0
sVAppAccountFlag
p4211
I0
sVVerifyFlag
p4212
I0
sVProvince
p4213
g52
sVKeyWord
p4214
g52
sVRemarkName
p4215
g52
sVPYInitial
p4216
g52
sVIsOwner
p4217
I0
sVChatRoomId
p4218
I0
sVHideInputBarFlag
p4219
I0
sVEncryChatRoomId
p4220
g52
sVAttrStatus
p4221
I0
sVSnsFlag
p4222
I0
sVMemberCount
p4223
I349
sVOwnerUin
p4224
I0
sVAlias
p4225
g52
sg4179
NsVSignature
p4226
g52
sVContactFlag
p4227
I0
sVNickName
p4228
V\u5c0f\u4e8c\u90ce1
p4229
sVRemarkPYQuanPin
p4230
g52
sVHeadImgUrl
p4231
V/cgi-bin/mmwebwx-bin/webwxgetheadimg?seq=0&username=@@42a915c4f6f6a16db7b91428708e1b6476d39806a992605677fe2ae565775635&skey=@crypt_915d192c_859cf8b7c20c6eeafe0c834301ece725
p4232
sVUin
p4233
I0
sVStarFriend
p4234
I0
sVStatues
p4235
I0
stp4236
Rp4237
I1
bag34
(g4143
g39
(dp4238
VUserName
p4239
V@@9548dd7427eee3fc0bdb54a5faa8d98752892cd406ebe49e6f563c9ac2e199d1
p4240
sVCity
p4241
g52
sVDisplayName
p4242
g52
sVUniFriend
p4243
I0
sg4150
g34
(g38
g39
(dp4244
g41
g31
sg42
g43
sg44
g43
sg45
I0
sg46
I0
sg47
g34
(g35
g36
(lp4245
tp4246
Rp4247
I1
bsg51
g52
sg53
g52
sg54
I1463552906
sg55
I0
sg56
I0
sg57
g43
sg58
g43
sg59
g52
sg60
g52
sg61
I0
sg62
I0
sg63
I1
sg64
g43
sg65
I0
sg66
I1
sg67
I0
sg68
I3
sg69
g43
sg70
g71
sg72
I0
sg73
g74
sg75
g52
sg76
g77
sg78
I1
sg79
I0
sg80
I0
stp4248
Rp4249
I1
bsVMemberList
p4250
g34
(g35
g36
(lp4251
tp4252
Rp4253
I1
bsVPYQuanPin
p4254
g52
sVRemarkPYInitial
p4255
g52
sVSex
p4256
I0
sVAppAccountFlag
p4257
I0
sVVerifyFlag
p4258
I0
sVProvince
p4259
g52
sVKeyWord
p4260
g52
sVRemarkName
p4261
g52
sVPYInitial
p4262
g52
sVIsOwner
p4263
I0
sVChatRoomId
p4264
I0
sVHideInputBarFlag
p4265
I0
sVEncryChatRoomId
p4266
g52
sVAttrStatus
p4267
I0
sVSnsFlag
p4268
I0
sVMemberCount
p4269
I220
sVOwnerUin
p4270
I0
sVAlias
p4271
g52
sg4179
NsVSignature
p4272
g52
sVContactFlag
p4273
I0
sVNickName
p4274
V\u6982\u8bba\u8bfe2017-\u5468\u4e09\u73ed
p4275
sVRemarkPYQuanPin
p4276
g52
sVHeadImgUrl
p4277
V/cgi-bin/mmwebwx-bin/webwxgetheadimg?seq=0&username=@@9548dd7427eee3fc0bdb54a5faa8d98752892cd406ebe49e6f563c9ac2e199d1&skey=@crypt_915d192c_859cf8b7c20c6eeafe0c834301ece725
p4278
sVUin
p4279
I0
sVStarFriend
p4280
I0
sVStatues
p4281
I0
stp4282
Rp4283
I1
bag34
(g4143
g39
(dp4284
VUserName
p4285
V@@b3333a5a655e9c5405e24e32388126f97ab4c2293885b68a80378c5ba012bea4
p4286
sVCity
p4287
g52
sVDisplayName
p4288
g52
sVUniFriend
p4289
I0
sg4150
g34
(g38
g39
(dp4290
g41
g31
sg42
g43
sg44
g43
sg45
I0
sg46
I0
sg47
g34
(g35
g36
(lp4291
tp4292
Rp4293
I1
bsg51
g52
sg53
g52
sg54
I1463552906
sg55
I0
sg56
I0
sg57
g43
sg58
g43
sg59
g52
sg60
g52
sg61
I0
sg62
I0
sg63
I1
sg64
g43
sg65
I0
sg66
I1
sg67
I0
sg68
I3
sg69
g43
sg70
g71
sg72
I0
sg73
g74
sg75
g52
sg76
g77
sg78
I1
sg79
I0
sg80
I0
stp4294
Rp4295
I1
bsVMemberList
p4296
g34
(g35
g36
(lp4297
tp4298
Rp4299
I1
bsVPYQuanPin
p4300
g52
sVRemarkPYInitial
p4301
g52
sVSex
p4302
I0
sVAppAccountFlag
p4303
I0
sVVerifyFlag
p4304
I0
sVProvince
p4305
g52
sVKeyWord
p4306
g52
sVRemarkName
p4307
g52
sVPYInitial
p4308
g52
sVIsOwner
p4309
I0
sVChatRoomId
p4310
I0
sVHideInputBarFlag
p4311
I0
sVEncryChatRoomId
p4312
g52
sVAttrStatus
p4313
I0
sVSnsFlag
p4314
I0
sVMemberCount
p4315
I8
sVOwnerUin
p4316
I0
sVAlias
p4317
g52
sg4179
NsVSignature
p4318
g52
sVContactFlag
p4319
I0
sVNickName
p4320
V\u4e3b\u98984\u6587\u5e7b\u52a9\u65593\u70b9
p4321
sVRemarkPYQuanPin
p4322
g52
sVHeadImgUrl
p4323
V/cgi-bin/mmwebwx-bin/webwxgetheadimg?seq=0&username=@@b3333a5a655e9c5405e24e32388126f97ab4c2293885b68a80378c5ba012bea4&skey=@crypt_915d192c_859cf8b7c20c6eeafe0c834301ece725
p4324
sVUin
p4325
I0
sVStarFriend
p4326
I0
sVStatues
p4327
I0
stp4328
Rp4329
I1
bag34
(g4143
g39
(dp4330
VUserName
p4331
V@@869d738db3d2b924cedf332049393e155b9b3b49557c7fc5bef0df647e40663a
p4332
sVCity
p4333
g52
sVDisplayName
p4334
g52
sVUniFriend
p4335
I0
sg4150
g34
(g38
g39
(dp4336
g41
g31
sg42
g43
sg44
g43
sg45
I0
sg46
I0
sg47
g34
(g35
g36
(lp4337
tp4338
Rp4339
I1
bsg51
g52
sg53
g52
sg54
I1463552906
sg55
I0
sg56
I0
sg57
g43
sg58
g43
sg59
g52
sg60
g52
sg61
I0
sg62
I0
sg63
I1
sg64
g43
sg65
I0
sg66
I1
sg67
I0
sg68
I3
sg69
g43
sg70
g71
sg72
I0
sg73
g74
sg75
g52
sg76
g77
sg78
I1
sg79
I0
sg80
I0
stp4340
Rp4341
I1
bsVMemberList
p4342
g34
(g35
g36
(lp4343
tp4344
Rp4345
I1
bsVPYQuanPin
p4346
g52
sVRemarkPYInitial
p4347
g52
sVSex
p4348
I0
sVAppAccountFlag
p4349
I0
sVVerifyFlag
p4350
I0
sVProvince
p4351
g52
sVKeyWord
p4352
g52
sVRemarkName
p4353
g52
sVPYInitial
p4354
g52
sVIsOwner
p4355
I0
sVChatRoomId
p4356
I0
sVHideInputBarFlag
p4357
I0
sVEncryChatRoomId
p4358
g52
sVAttrStatus
p4359
I0
sVSnsFlag
p4360
I0
sVMemberCount
p4361
I37
sVOwnerUin
p4362
I0
sVAlias
p4363
g52
sg4179
NsVSignature
p4364
g52
sVContactFlag
p4365
I2
sVNickName
p4366
V\u5317\u6e05magic
p4367
sVRemarkPYQuanPin
p4368
g52
sVHeadImgUrl
p4369
V/cgi-bin/mmwebwx-bin/webwxgetheadimg?seq=663596106&username=@@869d738db3d2b924cedf332049393e155b9b3b49557c7fc5bef0df647e40663a&skey=@crypt_915d192c_859cf8b7c20c6eeafe0c834301ece725
p4370
sVUin
p4371
I0
sVStarFriend
p4372
I0
sVStatues
p4373
I0
stp4374
Rp4375
I1
bag34
(g4143
g39
(dp4376
VUserName
p4377
V@@02a842fdd0f66dd5950a0376746d25854cce0f3740a411ea2bf0c4096ed91286
p4378
sVCity
p4379
g52
sVDisplayName
p4380
g52
sVUniFriend
p4381
I0
sg4150
g34
(g38
g39
(dp4382
g41
g31
sg42
g43
sg44
g43
sg45
I0
sg46
I0
sg47
g34
(g35
g36
(lp4383
tp4384
Rp4385
I1
bsg51
g52
sg53
g52
sg54
I1463552906
sg55
I0
sg56
I0
sg57
g43
sg58
g43
sg59
g52
sg60
g52
sg61
I0
sg62
I0
sg63
I1
sg64
g43
sg65
I0
sg66
I1
sg67
I0
sg68
I3
sg69
g43
sg70
g71
sg72
I0
sg73
g74
sg75
g52
sg76
g77
sg78
I1
sg79
I0
sg80
I0
stp4386
Rp4387
I1
bsVMemberList
p4388
g34
(g35
g36
(lp4389
tp4390
Rp4391
I1
bsVPYQuanPin
p4392
g52
sVRemarkPYInitial
p4393
g52
sVSex
p4394
I0
sVAppAccountFlag
p4395
I0
sVVerifyFlag
p4396
I0
sVProvince
p4397
g52
sVKeyWord
p4398
g52
sVRemarkName
p4399
g52
sVPYInitial
p4400
g52
sVIsOwner
p4401
I0
sVChatRoomId
p4402
I0
sVHideInputBarFlag
p4403
I0
sVEncryChatRoomId
p4404
g52
sVAttrStatus
p4405
I0
sVSnsFlag
p4406
I0
sVMemberCount
p4407
I4
sVOwnerUin
p4408
I0
sVAlias
p4409
g52
sg4179
NsVSignature
p4410
g52
sVContactFlag
p4411
I2050
sVNickName
p4412
V411A
p4413
sVRemarkPYQuanPin
p4414
g52
sVHeadImgUrl
p4415
V/cgi-bin/mmwebwx-bin/webwxgetheadimg?seq=663598919&username=@@02a842fdd0f66dd5950a0376746d25854cce0f3740a411ea2bf0c4096ed91286&skey=@crypt_915d192c_859cf8b7c20c6eeafe0c834301ece725
p4416
sVUin
p4417
I0
sVStarFriend
p4418
I0
sVStatues
p4419
I0
stp4420
Rp4421
I1
bag34
(g4143
g39
(dp4422
VUserName
p4423
V@@c970f86f1a9f827b8b706932724a06b8550412ca24ce16a122ff2232043ef9d8
p4424
sVCity
p4425
g52
sVDisplayName
p4426
g52
sVUniFriend
p4427
I0
sg4150
g34
(g38
g39
(dp4428
g41
g31
sg42
g43
sg44
g43
sg45
I0
sg46
I0
sg47
g34
(g35
g36
(lp4429
tp4430
Rp4431
I1
bsg51
g52
sg53
g52
sg54
I1463552906
sg55
I0
sg56
I0
sg57
g43
sg58
g43
sg59
g52
sg60
g52
sg61
I0
sg62
I0
sg63
I1
sg64
g43
sg65
I0
sg66
I1
sg67
I0
sg68
I3
sg69
g43
sg70
g71
sg72
I0
sg73
g74
sg75
g52
sg76
g77
sg78
I1
sg79
I0
sg80
I0
stp4432
Rp4433
I1
bsVMemberList
p4434
g34
(g35
g36
(lp4435
tp4436
Rp4437
I1
bsVPYQuanPin
p4438
g52
sVRemarkPYInitial
p4439
g52
sVSex
p4440
I0
sVAppAccountFlag
p4441
I0
sVVerifyFlag
p4442
I0
sVProvince
p4443
g52
sVKeyWord
p4444
g52
sVRemarkName
p4445
g52
sVPYInitial
p4446
g52
sVIsOwner
p4447
I0
sVChatRoomId
p4448
I0
sVHideInputBarFlag
p4449
I0
sVEncryChatRoomId
p4450
g52
sVAttrStatus
p4451
I0
sVSnsFlag
p4452
I0
sVMemberCount
p4453
I65
sVOwnerUin
p4454
I0
sVAlias
p4455
g52
sg4179
NsVSignature
p4456
g52
sVContactFlag
p4457
I0
sVNickName
p4458
V\u673a\u5668\u5b66\u4e60\u6982\u8bba2017\u6625
p4459
sVRemarkPYQuanPin
p4460
g52
sVHeadImgUrl
p4461
V/cgi-bin/mmwebwx-bin/webwxgetheadimg?seq=0&username=@@c970f86f1a9f827b8b706932724a06b8550412ca24ce16a122ff2232043ef9d8&skey=@crypt_915d192c_859cf8b7c20c6eeafe0c834301ece725
p4462
sVUin
p4463
I0
sVStarFriend
p4464
I0
sVStatues
p4465
I0
stp4466
Rp4467
I1
bag34
(g4143
g39
(dp4468
VUserName
p4469
V@@f8b64c4646d733e53f871c249c123591943794d914e2d29ce4f67d998c2adad9
p4470
sVCity
p4471
g52
sVDisplayName
p4472
g52
sVUniFriend
p4473
I0
sg4150
g34
(g38
g39
(dp4474
g41
g31
sg42
g43
sg44
g43
sg45
I0
sg46
I0
sg47
g34
(g35
g36
(lp4475
tp4476
Rp4477
I1
bsg51
g52
sg53
g52
sg54
I1463552906
sg55
I0
sg56
I0
sg57
g43
sg58
g43
sg59
g52
sg60
g52
sg61
I0
sg62
I0
sg63
I1
sg64
g43
sg65
I0
sg66
I1
sg67
I0
sg68
I3
sg69
g43
sg70
g71
sg72
I0
sg73
g74
sg75
g52
sg76
g77
sg78
I1
sg79
I0
sg80
I0
stp4478
Rp4479
I1
bsVMemberList
p4480
g34
(g35
g36
(lp4481
tp4482
Rp4483
I1
bsVPYQuanPin
p4484
Vshehuizhuyihou
p4485
sVRemarkPYInitial
p4486
g52
sVSex
p4487
I0
sVAppAccountFlag
p4488
I0
sVVerifyFlag
p4489
I0
sVProvince
p4490
g52
sVKeyWord
p4491
g52
sVRemarkName
p4492
g52
sVPYInitial
p4493
VSHZYH
p4494
sVIsOwner
p4495
I1
sVChatRoomId
p4496
I0
sVHideInputBarFlag
p4497
I0
sVEncryChatRoomId
p4498
g52
sVAttrStatus
p4499
I0
sVSnsFlag
p4500
I0
sVMemberCount
p4501
I0
sVOwnerUin
p4502
I0
sVAlias
p4503
g52
sg4179
NsVSignature
p4504
g52
sVContactFlag
p4505
I3
sVNickName
p4506
V\u793e\u4f1a\u4e3b\u4e49\u543c
p4507
sVRemarkPYQuanPin
p4508
g52
sVHeadImgUrl
p4509
V/cgi-bin/mmwebwx-bin/webwxgetheadimg?seq=624410684&username=@@f8b64c4646d733e53f871c249c123591943794d914e2d29ce4f67d998c2adad9&skey=@crypt_915d192c_859cf8b7c20c6eeafe0c834301ece725
p4510
sVUin
p4511
I0
sVStarFriend
p4512
I0
sVStatues
p4513
I1
stp4514
Rp4515
I1
bag34
(g4143
g39
(dp4516
VUserName
p4517
V@@2b481b844b379295db938fd5c6d704d2c9e3867643c0fc4a8341b6c2cba9c10d
p4518
sVCity
p4519
g52
sVDisplayName
p4520
g52
sVUniFriend
p4521
I0
sg4150
g34
(g38
g39
(dp4522
g41
g31
sg42
g43
sg44
g43
sg45
I0
sg46
I0
sg47
g34
(g35
g36
(lp4523
tp4524
Rp4525
I1
bsg51
g52
sg53
g52
sg54
I1463552906
sg55
I0
sg56
I0
sg57
g43
sg58
g43
sg59
g52
sg60
g52
sg61
I0
sg62
I0
sg63
I1
sg64
g43
sg65
I0
sg66
I1
sg67
I0
sg68
I3
sg69
g43
sg70
g71
sg72
I0
sg73
g74
sg75
g52
sg76
g77
sg78
I1
sg79
I0
sg80
I0
stp4526
Rp4527
I1
bsVMemberList
p4528
g34
(g35
g36
(lp4529
tp4530
Rp4531
I1
bsVPYQuanPin
p4532
Vwujiusishiwu
p4533
sVRemarkPYInitial
p4534
g52
sVSex
p4535
I0
sVAppAccountFlag
p4536
I0
sVVerifyFlag
p4537
I0
sVProvince
p4538
g52
sVKeyWord
p4539
g52
sVRemarkName
p4540
g52
sVPYInitial
p4541
VWJSSW
p4542
sVIsOwner
p4543
I0
sVChatRoomId
p4544
I0
sVHideInputBarFlag
p4545
I0
sVEncryChatRoomId
p4546
g52
sVAttrStatus
p4547
I0
sVSnsFlag
p4548
I0
sVMemberCount
p4549
I0
sVOwnerUin
p4550
I0
sVAlias
p4551
g52
sg4179
NsVSignature
p4552
g52
sVContactFlag
p4553
I3
sVNickName
p4554
V\u543e\u9152\u56db\u5341\u4e94
p4555
sVRemarkPYQuanPin
p4556
g52
sVHeadImgUrl
p4557
V/cgi-bin/mmwebwx-bin/webwxgetheadimg?seq=663594169&username=@@2b481b844b379295db938fd5c6d704d2c9e3867643c0fc4a8341b6c2cba9c10d&skey=@crypt_915d192c_859cf8b7c20c6eeafe0c834301ece725
p4558
sVUin
p4559
I0
sVStarFriend
p4560
I0
sVStatues
p4561
I0
stp4562
Rp4563
I1
bag34
(g4143
g39
(dp4564
VUserName
p4565
V@@0cfc912c224d5435fea325464f5e3d54bf9e0e1970b52123beebc13829432c67
p4566
sVCity
p4567
g52
sVDisplayName
p4568
g52
sVUniFriend
p4569
I0
sg4150
g34
(g38
g39
(dp4570
g41
g31
sg42
g43
sg44
g43
sg45
I0
sg46
I0
sg47
g34
(g35
g36
(lp4571
tp4572
Rp4573
I1
bsg51
g52
sg53
g52
sg54
I1463552906
sg55
I0
sg56
I0
sg57
g43
sg58
g43
sg59
g52
sg60
g52
sg61
I0
sg62
I0
sg63
I1
sg64
g43
sg65
I0
sg66
I1
sg67
I0
sg68
I3
sg69
g43
sg70
g71
sg72
I0
sg73
g74
sg75
g52
sg76
g77
sg78
I1
sg79
I0
sg80
I0
stp4574
Rp4575
I1
bsVMemberList
p4576
g34
(g35
g36
(lp4577
tp4578
Rp4579
I1
bsVPYQuanPin
p4580
Vji45
p4581
sVRemarkPYInitial
p4582
g52
sVSex
p4583
I0
sVAppAccountFlag
p4584
I0
sVVerifyFlag
p4585
I0
sVProvince
p4586
g52
sVKeyWord
p4587
g52
sVRemarkName
p4588
g52
sVPYInitial
p4589
VJ45
p4590
sVIsOwner
p4591
I0
sVChatRoomId
p4592
I0
sVHideInputBarFlag
p4593
I0
sVEncryChatRoomId
p4594
g52
sVAttrStatus
p4595
I0
sVSnsFlag
p4596
I0
sVMemberCount
p4597
I0
sVOwnerUin
p4598
I0
sVAlias
p4599
g52
sg4179
NsVSignature
p4600
g52
sVContactFlag
p4601
I2051
sVNickName
p4602
V\u8ba145
p4603
sVRemarkPYQuanPin
p4604
g52
sVHeadImgUrl
p4605
V/cgi-bin/mmwebwx-bin/webwxgetheadimg?seq=663594166&username=@@0cfc912c224d5435fea325464f5e3d54bf9e0e1970b52123beebc13829432c67&skey=@crypt_915d192c_859cf8b7c20c6eeafe0c834301ece725
p4606
sVUin
p4607
I0
sVStarFriend
p4608
I0
sVStatues
p4609
I1
stp4610
Rp4611
I1
batp4612
Rp4613
I1
bsS'nickName'
p4614
g74
sS'mpList'
p4615
g34
(g35
g36
(lp4616
g34
(citchat.storage.templates
MassivePlatform
p4617
g39
(dp4618
VUserName
p4619
V@69fb763b266d4753e5136835eaee84be
p4620
sVCity
p4621
V\u5e7f\u5dde
p4622
sVSnsFlag
p4623
I0
sVDisplayName
p4624
g52
sVUniFriend
p4625
I0
sVMemberCount
p4626
I0
sVOwnerUin
p4627
I0
sVMemberList
p4628
g50
sVAlias
p4629
g52
sVPYQuanPin
p4630
Vgongzhongpingtaianquanzhushou
p4631
sVSignature
p4632
V\u63d0\u4f9b\u5fae\u4fe1\u516c\u4f17\u53f7\u767b\u5f55\u548c\u7fa4\u53d1\u7b49\u5b89\u5168\u64cd\u4f5c\uff0c\u5728\u624b\u673a\u4e0a\u67e5\u6536\u6d88\u606f\u3001\u8bc4\u8bba\u3001\u8d5e\u8d4f\uff0c\u65b0\u5efa\u7fa4\u53d1\u548c\u67e5\u770b\u7fa4\u53d1\u5386\u53f2\u3002
p4633
sVRemarkPYInitial
p4634
g52
sVContactFlag
p4635
I3
sVUin
p4636
I0
sVNickName
p4637
V\u516c\u4f17\u5e73\u53f0\u5b89\u5168\u52a9\u624b
p4638
sVAppAccountFlag
p4639
I0
sVVerifyFlag
p4640
I24
sVRemarkPYQuanPin
p4641
g52
sVHeadImgUrl
p4642
V/cgi-bin/mmwebwx-bin/webwxgeticon?seq=624410566&username=@69fb763b266d4753e5136835eaee84be&skey=@crypt_915d192c_859cf8b7c20c6eeafe0c834301ece725
p4643
sVKeyWord
p4644
Vmph
p4645
sVProvince
p4646
V\u5e7f\u4e1c
p4647
sVPYInitial
p4648
VGZPTAQZS
p4649
sVRemarkName
p4650
g52
sVIsOwner
p4651
I0
sVSex
p4652
I0
sVStarFriend
p4653
I0
sVHideInputBarFlag
p4654
I0
sVChatRoomId
p4655
I0
sVEncryChatRoomId
p4656
g52
sVAttrStatus
p4657
I98459
sVStatues
p4658
I0
stp4659
Rp4660
I1
bag34
(g4617
g39
(dp4661
VUserName
p4662
V@a47f1b1d23c224dc835eaf78f756dd4b
p4663
sVCity
p4664
V\u6d77\u6dc0
p4665
sVSnsFlag
p4666
I0
sVDisplayName
p4667
g52
sVUniFriend
p4668
I0
sVMemberCount
p4669
I0
sVOwnerUin
p4670
I0
sVMemberList
p4671
g50
sVAlias
p4672
VAICraft
p4673
sVPYQuanPin
p4674
g52
sVSignature
p4675
V\u4e3b\u8981\u9762\u5411\u5927\u5b66\u65b0\u751f\u7684AI\u7f16\u7a0b\u5927\u8d5b
p4676
sVRemarkPYInitial
p4677
g52
sVContactFlag
p4678
I1
sVUin
p4679
I0
sVNickName
p4680
Vgh_044df60e5dfa
p4681
sVAppAccountFlag
p4682
I0
sVVerifyFlag
p4683
I8
sVRemarkPYQuanPin
p4684
g52
sVHeadImgUrl
p4685
V/cgi-bin/mmwebwx-bin/webwxgeticon?seq=625990687&username=@a47f1b1d23c224dc835eaf78f756dd4b&skey=@crypt_915d192c_859cf8b7c20c6eeafe0c834301ece725
p4686
sVKeyWord
p4687
Vgh_
p4688
sVProvince
p4689
V\u5317\u4eac
p4690
sVPYInitial
p4691
g52
sVRemarkName
p4692
g52
sVIsOwner
p4693
I0
sVSex
p4694
I0
sVStarFriend
p4695
I0
sVHideInputBarFlag
p4696
I0
sVChatRoomId
p4697
I0
sVEncryChatRoomId
p4698
g52
sVAttrStatus
p4699
I0
sVStatues
p4700
I0
stp4701
Rp4702
I1
bag34
(g4617
g39
(dp4703
VUserName
p4704
V@eb054ce369685d3d99fc6be113d971e9
p4705
sVCity
p4706
V\u6d77\u6dc0
p4707
sVSnsFlag
p4708
I0
sVDisplayName
p4709
g52
sVUniFriend
p4710
I0
sVMemberCount
p4711
I0
sVOwnerUin
p4712
I0
sVMemberList
p4713
g50
sVAlias
p4714
Vmawzyu
p4715
sVPYQuanPin
p4716
Vmayu
p4717
sVSignature
p4718
V\u4e00\u5339\u9a6c\u7684\u81ea\u8a00\u81ea\u8bed\u3002
p4719
sVRemarkPYInitial
p4720
g52
sVContactFlag
p4721
I1
sVUin
p4722
I0
sVNickName
p4723
V\u9a6c\u8bed
p4724
sVAppAccountFlag
p4725
I0
sVVerifyFlag
p4726
I8
sVRemarkPYQuanPin
p4727
g52
sVHeadImgUrl
p4728
V/cgi-bin/mmwebwx-bin/webwxgeticon?seq=625991843&username=@eb054ce369685d3d99fc6be113d971e9&skey=@crypt_915d192c_859cf8b7c20c6eeafe0c834301ece725
p4729
sVKeyWord
p4730
Vgh_
p4731
sVProvince
p4732
V\u5317\u4eac
p4733
sVPYInitial
p4734
VMY
p4735
sVRemarkName
p4736
g52
sVIsOwner
p4737
I0
sVSex
p4738
I0
sVStarFriend
p4739
I0
sVHideInputBarFlag
p4740
I0
sVChatRoomId
p4741
I0
sVEncryChatRoomId
p4742
g52
sVAttrStatus
p4743
I0
sVStatues
p4744
I0
stp4745
Rp4746
I1
bag34
(g4617
g39
(dp4747
VUserName
p4748
V@05401bef3c2c140325cf3cb2c9fc7884
p4749
sVCity
p4750
V\u6df1\u5733
p4751
sVSnsFlag
p4752
I0
sVDisplayName
p4753
g52
sVUniFriend
p4754
I0
sVMemberCount
p4755
I0
sVOwnerUin
p4756
I0
sVMemberList
p4757
g50
sVAlias
p4758
g52
sVPYQuanPin
p4759
VQQanquanzhongxin
p4760
sVSignature
p4761
VQQ\u5b89\u5168\u4e2d\u5fc3\u5b98\u65b9\u5fae\u4fe1\u3002\u52aa\u529b\u4fdd\u62a4\u60a8\u7684QQ\u5b89\u5168\uff0c\u5173\u952e\u65f6\u523b\u53ca\u65f6\u63d0\u9192\uff0c\u968f\u65f6\u638c\u63e1\u5e10\u53f7\u5b89\u5168\u52a8\u6001\u3002
p4762
sVRemarkPYInitial
p4763
g52
sVContactFlag
p4764
I3
sVUin
p4765
I0
sVNickName
p4766
VQQ\u5b89\u5168\u4e2d\u5fc3
p4767
sVAppAccountFlag
p4768
I0
sVVerifyFlag
p4769
I24
sVRemarkPYQuanPin
p4770
g52
sVHeadImgUrl
p4771
V/cgi-bin/mmwebwx-bin/webwxgeticon?seq=634212020&username=@05401bef3c2c140325cf3cb2c9fc7884&skey=@crypt_915d192c_859cf8b7c20c6eeafe0c834301ece725
p4772
sVKeyWord
p4773
Vqqs
p4774
sVProvince
p4775
V\u5e7f\u4e1c
p4776
sVPYInitial
p4777
VQQAQZX
p4778
sVRemarkName
p4779
g52
sVIsOwner
p4780
I0
sVSex
p4781
I0
sVStarFriend
p4782
I0
sVHideInputBarFlag
p4783
I0
sVChatRoomId
p4784
I0
sVEncryChatRoomId
p4785
g52
sVAttrStatus
p4786
I0
sVStatues
p4787
I0
stp4788
Rp4789
I1
bag34
(g4617
g39
(dp4790
VUserName
p4791
V@fe9995e49be6f96568a73e1eaf256f3e
p4792
sVCity
p4793
V\u77f3\u666f\u5c71
p4794
sVSnsFlag
p4795
I0
sVDisplayName
p4796
g52
sVUniFriend
p4797
I0
sVMemberCount
p4798
I0
sVOwnerUin
p4799
I0
sVMemberList
p4800
g50
sVAlias
p4801
Vwacgexpo
p4802
sVPYQuanPin
p4803
VbeijingdongmanyouhujianianhuaIDO
p4804
sVSignature
p4805
V\u5317\u4eac\u52a8\u6f2b\u6e38\u620f\u5609\u5e74\u534e\uff08IDO\uff09\u6f2b\u5c55\u5b98\u65b9\u8d26\u53f7\uff0c\u52a8\u6f2b\u53ca\u5c55\u4f1a\u76f8\u5173\u54a8\u8be2\u7684\u53d1\u5e03\u53ca\u4e92\u52a8\u3002
p4806
sVRemarkPYInitial
p4807
g52
sVContactFlag
p4808
I3
sVUin
p4809
I0
sVNickName
p4810
V\u5317\u4eac\u52a8\u6f2b\u6e38\u620f\u5609\u5e74\u534eIDO
p4811
sVAppAccountFlag
p4812
I0
sVVerifyFlag
p4813
I24
sVRemarkPYQuanPin
p4814
g52
sVHeadImgUrl
p4815
V/cgi-bin/mmwebwx-bin/webwxgeticon?seq=632590893&username=@fe9995e49be6f96568a73e1eaf256f3e&skey=@crypt_915d192c_859cf8b7c20c6eeafe0c834301ece725
p4816
sVKeyWord
p4817
Vgh_
p4818
sVProvince
p4819
V\u5317\u4eac
p4820
sVPYInitial
p4821
VBJDMYHJNHIDO
p4822
sVRemarkName
p4823
g52
sVIsOwner
p4824
I0
sVSex
p4825
I0
sVStarFriend
p4826
I0
sVHideInputBarFlag
p4827
I0
sVChatRoomId
p4828
I0
sVEncryChatRoomId
p4829
g52
sVAttrStatus
p4830
I0
sVStatues
p4831
I0
stp4832
Rp4833
I1
bag34
(g4617
g39
(dp4834
VUserName
p4835
V@064028f332898223889b5d22d1fdbd8c
p4836
sVCity
p4837
V\u671d\u9633
p4838
sVSnsFlag
p4839
I0
sVDisplayName
p4840
g52
sVUniFriend
p4841
I0
sVMemberCount
p4842
I0
sVOwnerUin
p4843
I0
sVMemberList
p4844
g50
sVAlias
p4845
VCSDN_JOB
p4846
sVPYQuanPin
p4847
VCSDNqiyezhaopin
p4848
sVSignature
p4849
VCSDN JOB\uff0c\u6700\u61c2\u7a0b\u5e8f\u5458\u7684\u793e\u533a\u62db\u8058\uff0c\u63d0\u4f9b\u4e13\u6ce8\u4e8eIT\u6280\u672f\u4eba\u624d\u7684\u5728\u7ebf\u62db\u8058\u670d\u52a1\u3002
p4850
sVRemarkPYInitial
p4851
g52
sVContactFlag
p4852
I3
sVUin
p4853
I0
sVNickName
p4854
VCSDN\u4f01\u4e1a\u62db\u8058
p4855
sVAppAccountFlag
p4856
I0
sVVerifyFlag
p4857
I24
sVRemarkPYQuanPin
p4858
g52
sVHeadImgUrl
p4859
V/cgi-bin/mmwebwx-bin/webwxgeticon?seq=633501714&username=@064028f332898223889b5d22d1fdbd8c&skey=@crypt_915d192c_859cf8b7c20c6eeafe0c834301ece725
p4860
sVKeyWord
p4861
Vgh_
p4862
sVProvince
p4863
V\u5317\u4eac
p4864
sVPYInitial
p4865
VCSDNQYZP
p4866
sVRemarkName
p4867
g52
sVIsOwner
p4868
I0
sVSex
p4869
I0
sVStarFriend
p4870
I0
sVHideInputBarFlag
p4871
I0
sVChatRoomId
p4872
I0
sVEncryChatRoomId
p4873
g52
sVAttrStatus
p4874
I0
sVStatues
p4875
I0
stp4876
Rp4877
I1
bag34
(g4617
g39
(dp4878
VUserName
p4879
V@1419c04d79f0b845b3c865e319934958
p4880
sVCity
p4881
V\u6d77\u6dc0
p4882
sVSnsFlag
p4883
I0
sVDisplayName
p4884
g52
sVUniFriend
p4885
I0
sVMemberCount
p4886
I0
sVOwnerUin
p4887
I0
sVMemberList
p4888
g50
sVAlias
p4889
Vxmkc_gzwx
p4890
sVPYQuanPin
p4891
Vximenweidao
p4892
sVSignature
p4893
V\u897f\u95e8\u70e4\u7fc5 \u5b98\u65b9\u5fae\u4fe1\u5e73\u53f0
p4894
sVRemarkPYInitial
p4895
g52
sVContactFlag
p4896
I1
sVUin
p4897
I0
sVNickName
p4898
V\u897f\u95e8\u5473\u9053
p4899
sVAppAccountFlag
p4900
I0
sVVerifyFlag
p4901
I8
sVRemarkPYQuanPin
p4902
g52
sVHeadImgUrl
p4903
V/cgi-bin/mmwebwx-bin/webwxgeticon?seq=625990302&username=@1419c04d79f0b845b3c865e319934958&skey=@crypt_915d192c_859cf8b7c20c6eeafe0c834301ece725
p4904
sVKeyWord
p4905
Vgh_
p4906
sVProvince
p4907
V\u5317\u4eac
p4908
sVPYInitial
p4909
VXMWD
p4910
sVRemarkName
p4911
g52
sVIsOwner
p4912
I0
sVSex
p4913
I0
sVStarFriend
p4914
I0
sVHideInputBarFlag
p4915
I0
sVChatRoomId
p4916
I0
sVEncryChatRoomId
p4917
g52
sVAttrStatus
p4918
I0
sVStatues
p4919
I0
stp4920
Rp4921
I1
bag34
(g4617
g39
(dp4922
VUserName
p4923
V@cb34b4642a771559cd07b70df10748ae
p4924
sVCity
p4925
g52
sVSnsFlag
p4926
I0
sVDisplayName
p4927
g52
sVUniFriend
p4928
I0
sVMemberCount
p4929
I0
sVOwnerUin
p4930
I0
sVMemberList
p4931
g50
sVAlias
p4932
Vbeijing_10010
p4933
sVPYQuanPin
p4934
Vzhongguoliantongbeijingkefu
p4935
sVSignature
p4936
V\u6d3b\u52a8\u798f\u5229\u3001\u4e1a\u52a1\u529e\u7406\u3001\u5145\u503c\u7f34\u8d39\u3001\u81ea\u52a9\u67e5\u8be2\u3001\u4eba\u5de5\u5e2e\u52a9\u7b49\u4e92\u8054\u7f51\u5168\u65b9\u4f4d\u4fbf\u6c11\u670d\u52a1\u3002
p4937
sVRemarkPYInitial
p4938
g52
sVContactFlag
p4939
I3
sVUin
p4940
I0
sVNickName
p4941
V\u4e2d\u56fd\u8054\u901a\u5317\u4eac\u5ba2\u670d
p4942
sVAppAccountFlag
p4943
I0
sVVerifyFlag
p4944
I24
sVRemarkPYQuanPin
p4945
g52
sVHeadImgUrl
p4946
V/cgi-bin/mmwebwx-bin/webwxgeticon?seq=622450119&username=@cb34b4642a771559cd07b70df10748ae&skey=@crypt_915d192c_859cf8b7c20c6eeafe0c834301ece725
p4947
sVKeyWord
p4948
Vgh_
p4949
sVProvince
p4950
V\u5317\u4eac
p4951
sVPYInitial
p4952
VZGLTBJKF
p4953
sVRemarkName
p4954
g52
sVIsOwner
p4955
I0
sVSex
p4956
I0
sVStarFriend
p4957
I0
sVHideInputBarFlag
p4958
I0
sVChatRoomId
p4959
I0
sVEncryChatRoomId
p4960
g52
sVAttrStatus
p4961
I0
sVStatues
p4962
I0
stp4963
Rp4964
I1
bag34
(g4617
g39
(dp4965
VUserName
p4966
V@632b4fb5f9fba23c425facb696bbc5bb
p4967
sVCity
p4968
V\u897f\u57ce
p4969
sVSnsFlag
p4970
I0
sVDisplayName
p4971
g52
sVUniFriend
p4972
I0
sVMemberCount
p4973
I0
sVOwnerUin
p4974
I0
sVMemberList
p4975
g50
sVAlias
p4976
Vbeijing_unicom
p4977
sVPYQuanPin
p4978
Vbeijingliantong
p4979
sVSignature
p4980
V\u5317\u4eac\u8054\u901a\u5b98\u65b9\u5fae\u4fe1
p4981
sVRemarkPYInitial
p4982
g52
sVContactFlag
p4983
I3
sVUin
p4984
I0
sVNickName
p4985
V\u5317\u4eac\u8054\u901a
p4986
sVAppAccountFlag
p4987
I0
sVVerifyFlag
p4988
I24
sVRemarkPYQuanPin
p4989
g52
sVHeadImgUrl
p4990
V/cgi-bin/mmwebwx-bin/webwxgeticon?seq=622450070&username=@632b4fb5f9fba23c425facb696bbc5bb&skey=@crypt_915d192c_859cf8b7c20c6eeafe0c834301ece725
p4991
sVKeyWord
p4992
Vgh_
p4993
sVProvince
p4994
V\u5317\u4eac
p4995
sVPYInitial
p4996
VBJLT
p4997
sVRemarkName
p4998
g52
sVIsOwner
p4999
I0
sVSex
p5000
I0
sVStarFriend
p5001
I0
sVHideInputBarFlag
p5002
I0
sVChatRoomId
p5003
I0
sVEncryChatRoomId
p5004
g52
sVAttrStatus
p5005
I0
sVStatues
p5006
I0
stp5007
Rp5008
I1
bag34
(g4617
g39
(dp5009
VUserName
p5010
V@b79ae0d3a923c00ffdbf91052347a786
p5011
sVCity
p5012
V\u897f\u57ce
p5013
sVSnsFlag
p5014
I0
sVDisplayName
p5015
g52
sVUniFriend
p5016
I0
sVMemberCount
p5017
I0
sVOwnerUin
p5018
I0
sVMemberList
p5019
g50
sVAlias
p5020
Vqqunicom
p5021
sVPYQuanPin
p5022
Vbeijingliantongweijiaoyuan
p5023
sVSignature
p5024
V\u611f\u8c22\u60a8\u5173\u6ce8\u8054\u901a\u5fae\u6821\u56ed\uff0c\u6211\u4eec\u5c06\u4e3a\u60a8\u63d0\u4f9b\u5317\u4eac\u8054\u901a\u7684\u6700\u65b0\u8d44\u8baf\uff0c\u4e3a\u6821\u56ed\u5ba2\u6237\u63d0\u4f9b\u7684\u6700\u65b0\u4f18\u60e0\u4fe1\u606f\u3002
p5025
sVRemarkPYInitial
p5026
g52
sVContactFlag
p5027
I3
sVUin
p5028
I0
sVNickName
p5029
V\u5317\u4eac\u8054\u901a\u5fae\u6821\u56ed
p5030
sVAppAccountFlag
p5031
I0
sVVerifyFlag
p5032
I24
sVRemarkPYQuanPin
p5033
g52
sVHeadImgUrl
p5034
V/cgi-bin/mmwebwx-bin/webwxgeticon?seq=623480479&username=@b79ae0d3a923c00ffdbf91052347a786&skey=@crypt_915d192c_859cf8b7c20c6eeafe0c834301ece725
p5035
sVKeyWord
p5036
Vgh_
p5037
sVProvince
p5038
V\u5317\u4eac
p5039
sVPYInitial
p5040
VBJLTWJY
p5041
sVRemarkName
p5042
g52
sVIsOwner
p5043
I0
sVSex
p5044
I0
sVStarFriend
p5045
I0
sVHideInputBarFlag
p5046
I0
sVChatRoomId
p5047
I0
sVEncryChatRoomId
p5048
g52
sVAttrStatus
p5049
I0
sVStatues
p5050
I0
stp5051
Rp5052
I1
bag34
(g4617
g39
(dp5053
VUserName
p5054
V@3e9cc346acb0998bf7d556ef3d21d4b8
p5055
sVCity
p5056
V\u4e1c\u57ce
p5057
sVSnsFlag
p5058
I0
sVDisplayName
p5059
g52
sVUniFriend
p5060
I0
sVMemberCount
p5061
I0
sVOwnerUin
p5062
I0
sVMemberList
p5063
g50
sVAlias
p5064
VVjifenCN
p5065
sVPYQuanPin
p5066
VVjifen
p5067
sVSignature
p5068
V\u563f~\u670b\u53cb\uff01\u606d\u559c\u4f60\u53d1\u73b0\u4e86\u4e00\u4e2a\u5927\u91d1\u77ff......\u6bcf\u4e2a\u5468\u4e09\uff0c\u54c1\u724c\u5382\u5546\u90fd\u4f1a\u5728\u8fd9\u91cc\u53d1\u5e03\u4e00\u4e9b\u4f18\u60e0\u5546\u54c1\uff0c\u524d\u5f80\u4f60\u8eab\u8fb9\u7684\u8d85\u5e02\u8d2d\u4e70\uff0c\u62cd\u8d2d\u7269\u5c0f\u7968\uff0c\u5382\u5546\u7684\u8fd4\u5229\u5c31\u81ea\u52a8\u8df3\u5230\u4f60\u7684\u8d26\u6237\u91cc\u4e86\u3002\u5151\u6362\u8bdd\u8d39\u2026Er\uff0c\u63d0\u73b0\u529f\u80fd\u5373\u5c06\u5f00\u653e\u3002\u54c8\u54c8\uff01\u9694\u58c1\u674e\u963f\u59e8\u6bcf\u5468\u90fd\u5f97\u51e0\u5341\u5757\uff01
p5069
sVRemarkPYInitial
p5070
g52
sVContactFlag
p5071
I3
sVUin
p5072
I0
sVNickName
p5073
VV\u79ef\u5206
p5074
sVAppAccountFlag
p5075
I0
sVVerifyFlag
p5076
I24
sVRemarkPYQuanPin
p5077
g52
sVHeadImgUrl
p5078
V/cgi-bin/mmwebwx-bin/webwxgeticon?seq=625991067&username=@3e9cc346acb0998bf7d556ef3d21d4b8&skey=@crypt_915d192c_859cf8b7c20c6eeafe0c834301ece725
p5079
sVKeyWord
p5080
Vgh_
p5081
sVProvince
p5082
V\u5317\u4eac
p5083
sVPYInitial
p5084
VVJF
p5085
sVRemarkName
p5086
g52
sVIsOwner
p5087
I0
sVSex
p5088
I0
sVStarFriend
p5089
I0
sVHideInputBarFlag
p5090
I0
sVChatRoomId
p5091
I0
sVEncryChatRoomId
p5092
g52
sVAttrStatus
p5093
I0
sVStatues
p5094
I0
stp5095
Rp5096
I1
bag34
(g4617
g39
(dp5097
VUserName
p5098
V@b01d8e0aaffb419bd4eb8203946b87fe
p5099
sVCity
p5100
g52
sVSnsFlag
p5101
I0
sVDisplayName
p5102
g52
sVUniFriend
p5103
I0
sVMemberCount
p5104
I0
sVOwnerUin
p5105
I0
sVMemberList
p5106
g50
sVAlias
p5107
Vleishidiangetai
p5108
sVPYQuanPin
p5109
Vleishidiangetai
p5110
sVSignature
p5111
V\u6700\u706b\u7684KTV\u5a31\u4e50\u9065\u63a7\u5668\uff0c\u5305\u623f\u79d2\u53d8\u8f70\u8db4\u9986\uff0c\u5b9e\u73b0\u70b9\u6b4c\u3001\u8ba2\u623f\u3001\u8d2d\u7269\u3001\u793e\u4ea4\u3001\u4e00\u7ad9\u5f0f\u4f1a\u5458\u7b49\u529f\u80fd\uff0c\u66f4\u591a\u7cbe\u5f69\u7b49\u4f60\u6765\u53d1\u73b0\u54e6~
p5112
sVRemarkPYInitial
p5113
g52
sVContactFlag
p5114
I3
sVUin
p5115
I0
sVNickName
p5116
V\u96f7\u77f3\u70b9\u6b4c\u53f0
p5117
sVAppAccountFlag
p5118
I0
sVVerifyFlag
p5119
I24
sVRemarkPYQuanPin
p5120
g52
sVHeadImgUrl
p5121
V/cgi-bin/mmwebwx-bin/webwxgeticon?seq=638093056&username=@b01d8e0aaffb419bd4eb8203946b87fe&skey=@crypt_915d192c_859cf8b7c20c6eeafe0c834301ece725
p5122
sVKeyWord
p5123
Vgh_
p5124
sVProvince
p5125
V\u5317\u4eac
p5126
sVPYInitial
p5127
VLSDGT
p5128
sVRemarkName
p5129
g52
sVIsOwner
p5130
I0
sVSex
p5131
I0
sVStarFriend
p5132
I0
sVHideInputBarFlag
p5133
I0
sVChatRoomId
p5134
I0
sVEncryChatRoomId
p5135
g52
sVAttrStatus
p5136
I0
sVStatues
p5137
I0
stp5138
Rp5139
I1
bag34
(g4617
g39
(dp5140
VUserName
p5141
V@c1d3388302394c197c0c8575716a70c0
p5142
sVCity
p5143
V\u6d77\u6dc0
p5144
sVSnsFlag
p5145
I0
sVDisplayName
p5146
g52
sVUniFriend
p5147
I0
sVMemberCount
p5148
I0
sVOwnerUin
p5149
I0
sVMemberList
p5150
g50
sVAlias
p5151
VTHUDA44
p5152
sVPYQuanPin
p5153
VDiamond4
p5154
sVSignature
p5155
VVeni vidi vici
p5156
sVRemarkPYInitial
p5157
g52
sVContactFlag
p5158
I1
sVUin
p5159
I0
sVNickName
p5160
VDiamond4
p5161
sVAppAccountFlag
p5162
I0
sVVerifyFlag
p5163
I8
sVRemarkPYQuanPin
p5164
g52
sVHeadImgUrl
p5165
V/cgi-bin/mmwebwx-bin/webwxgeticon?seq=634210880&username=@c1d3388302394c197c0c8575716a70c0&skey=@crypt_915d192c_859cf8b7c20c6eeafe0c834301ece725
p5166
sVKeyWord
p5167
Vgh_
p5168
sVProvince
p5169
V\u5317\u4eac
p5170
sVPYInitial
p5171
VDIAMOND4
p5172
sVRemarkName
p5173
g52
sVIsOwner
p5174
I0
sVSex
p5175
I0
sVStarFriend
p5176
I0
sVHideInputBarFlag
p5177
I0
sVChatRoomId
p5178
I0
sVEncryChatRoomId
p5179
g52
sVAttrStatus
p5180
I0
sVStatues
p5181
I0
stp5182
Rp5183
I1
bag34
(g4617
g39
(dp5184
VUserName
p5185
V@91ec95e18014140a4ab25b6b955b3ee6
p5186
sVCity
p5187
V\u95f8\u5317
p5188
sVSnsFlag
p5189
I0
sVDisplayName
p5190
g52
sVUniFriend
p5191
I0
sVMemberCount
p5192
I0
sVOwnerUin
p5193
I0
sVMemberList
p5194
g50
sVAlias
p5195
Vdaqinhuanbao
p5196
sVPYQuanPin
p5197
Vdaqinyunshang
p5198
sVSignature
p5199
V\u8ba9\u6211\u4eec\u7684\u7528\u5fc3\uff0c\u7cbe\u81f4\u60a8\u7684\u751f\u6d3b
p5200
sVRemarkPYInitial
p5201
g52
sVContactFlag
p5202
I3
sVUin
p5203
I0
sVNickName
p5204
V\u5927\u52e4\u4e91\u5546
p5205
sVAppAccountFlag
p5206
I0
sVVerifyFlag
p5207
I24
sVRemarkPYQuanPin
p5208
g52
sVHeadImgUrl
p5209
V/cgi-bin/mmwebwx-bin/webwxgeticon?seq=638091911&username=@91ec95e18014140a4ab25b6b955b3ee6&skey=@crypt_915d192c_859cf8b7c20c6eeafe0c834301ece725
p5210
sVKeyWord
p5211
Vgh_
p5212
sVProvince
p5213
V\u4e0a\u6d77
p5214
sVPYInitial
p5215
VDQYS
p5216
sVRemarkName
p5217
g52
sVIsOwner
p5218
I0
sVSex
p5219
I0
sVStarFriend
p5220
I0
sVHideInputBarFlag
p5221
I0
sVChatRoomId
p5222
I0
sVEncryChatRoomId
p5223
g52
sVAttrStatus
p5224
I0
sVStatues
p5225
I0
stp5226
Rp5227
I1
bag34
(g4617
g39
(dp5228
VUserName
p5229
V@e317ecee72514b5fa900482d01a0196a
p5230
sVCity
p5231
g52
sVSnsFlag
p5232
I0
sVDisplayName
p5233
g52
sVUniFriend
p5234
I0
sVMemberCount
p5235
I0
sVOwnerUin
p5236
I0
sVMemberList
p5237
g50
sVAlias
p5238
Vspytxl
p5239
sVPYQuanPin
p5240
Vjiangxinongdashipinyuantuanxuelian
p5241
sVSignature
p5242
V\u6784\u5efa\u5b66\u9662\u4e0e\u5b66\u6821\u4e4b\u95f4\u7684\u6865\u6881\uff0c\u53ca\u65f6\u53d1\u653e\u6211\u9662\u52a8\u6001\uff0c\u8ba9\u540c\u5b66\u80fd\u591f\u968f\u65f6\u83b7\u53d6\u9662\u6821\u5185\u8baf\u606f
p5243
sVRemarkPYInitial
p5244
g52
sVContactFlag
p5245
I1
sVUin
p5246
I0
sVNickName
p5247
V\u6c5f\u897f\u519c\u5927\u98df\u54c1\u9662\u56e2\u5b66\u8054
p5248
sVAppAccountFlag
p5249
I0
sVVerifyFlag
p5250
I8
sVRemarkPYQuanPin
p5251
g52
sVHeadImgUrl
p5252
V/cgi-bin/mmwebwx-bin/webwxgeticon?seq=628736518&username=@e317ecee72514b5fa900482d01a0196a&skey=@crypt_915d192c_859cf8b7c20c6eeafe0c834301ece725
p5253
sVKeyWord
p5254
Vgh_
p5255
sVProvince
p5256
V\u6c5f\u897f
p5257
sVPYInitial
p5258
VJXNDSPYTXL
p5259
sVRemarkName
p5260
g52
sVIsOwner
p5261
I0
sVSex
p5262
I0
sVStarFriend
p5263
I0
sVHideInputBarFlag
p5264
I0
sVChatRoomId
p5265
I0
sVEncryChatRoomId
p5266
g52
sVAttrStatus
p5267
I0
sVStatues
p5268
I0
stp5269
Rp5270
I1
bag34
(g4617
g39
(dp5271
VUserName
p5272
V@d8ee1c7271728c48cdd313b0f952ca7b
p5273
sVCity
p5274
g52
sVSnsFlag
p5275
I0
sVDisplayName
p5276
g52
sVUniFriend
p5277
I0
sVMemberCount
p5278
I0
sVOwnerUin
p5279
I0
sVMemberList
p5280
g50
sVAlias
p5281
Vwxzhifu
p5282
sVPYQuanPin
p5283
Vweixinzhifu
p5284
sVSignature
p5285
V\u5e2e\u52a9\u89e3\u51b3\u5fae\u4fe1\u652f\u4ed8\u4e2d\u9047\u5230\u7684\u56f0\u96be\uff0c\u6536\u96c6\u5173\u4e8e\u5fae\u4fe1\u652f\u4ed8\u7684\u5efa\u8bae\u53cd\u9988\u3002
p5286
sVRemarkPYInitial
p5287
g52
sVContactFlag
p5288
I3
sVUin
p5289
I0
sVNickName
p5290
V\u5fae\u4fe1\u652f\u4ed8
p5291
sVAppAccountFlag
p5292
I0
sVVerifyFlag
p5293
I24
sVRemarkPYQuanPin
p5294
g52
sVHeadImgUrl
p5295
V/cgi-bin/mmwebwx-bin/webwxgeticon?seq=643122575&username=@d8ee1c7271728c48cdd313b0f952ca7b&skey=@crypt_915d192c_859cf8b7c20c6eeafe0c834301ece725
p5296
sVKeyWord
p5297
Vgh_
p5298
sVProvince
p5299
V\u5e7f\u4e1c
p5300
sVPYInitial
p5301
VWXZF
p5302
sVRemarkName
p5303
g52
sVIsOwner
p5304
I0
sVSex
p5305
I0
sVStarFriend
p5306
I0
sVHideInputBarFlag
p5307
I0
sVChatRoomId
p5308
I0
sVEncryChatRoomId
p5309
g52
sVAttrStatus
p5310
I0
sVStatues
p5311
I0
stp5312
Rp5313
I1
bag34
(g4617
g39
(dp5314
VUserName
p5315
V@c8c8191e1ccf8b01ce258b4a8872a07c
p5316
sVCity
p5317
V\u671d\u9633
p5318
sVSnsFlag
p5319
I0
sVDisplayName
p5320
g52
sVUniFriend
p5321
I0
sVMemberCount
p5322
I0
sVOwnerUin
p5323
I0
sVMemberList
p5324
g50
sVAlias
p5325
VUCCA_official
p5326
sVPYQuanPin
p5327
VyoulunsiUCCA
p5328
sVSignature
p5329
V\u5c24\u4f26\u65af\u5f53\u4ee3\u827a\u672f\u4e2d\u5fc3\u5b98\u65b9\u5fae\u4fe1
p5330
sVRemarkPYInitial
p5331
g52
sVContactFlag
p5332
I3
sVUin
p5333
I0
sVNickName
p5334
V\u5c24\u4f26\u65afUCCA
p5335
sVAppAccountFlag
p5336
I0
sVVerifyFlag
p5337
I24
sVRemarkPYQuanPin
p5338
g52
sVHeadImgUrl
p5339
V/cgi-bin/mmwebwx-bin/webwxgeticon?seq=643125477&username=@c8c8191e1ccf8b01ce258b4a8872a07c&skey=@crypt_915d192c_859cf8b7c20c6eeafe0c834301ece725
p5340
sVKeyWord
p5341
Vgh_
p5342
sVProvince
p5343
V\u5317\u4eac
p5344
sVPYInitial
p5345
VYLSUCCA
p5346
sVRemarkName
p5347
g52
sVIsOwner
p5348
I0
sVSex
p5349
I0
sVStarFriend
p5350
I0
sVHideInputBarFlag
p5351
I0
sVChatRoomId
p5352
I0
sVEncryChatRoomId
p5353
g52
sVAttrStatus
p5354
I0
sVStatues
p5355
I0
stp5356
Rp5357
I1
bag34
(g4617
g39
(dp5358
VUserName
p5359
V@5e0221fefdeb4e3da64ff18c1aa8a4d2
p5360
sVCity
p5361
V\u95f5\u884c
p5362
sVSnsFlag
p5363
I0
sVDisplayName
p5364
g52
sVUniFriend
p5365
I0
sVMemberCount
p5366
I0
sVOwnerUin
p5367
I0
sVMemberList
p5368
g50
sVAlias
p5369
Velemeorder
p5370
sVPYQuanPin
p5371
Velemewangshangdingcan
p5372
sVSignature
p5373
V\u997f\u4e86\u4e48\uff08http://ele.me\uff09\uff0c\u4e13\u4e1a\u7684\u5916\u5356\u8ba2\u9910\u7f51\u7ad9\uff0c\u6c47\u96c6\u5468\u8fb9\u7f8e\u98df\u5916\u5356\uff0c\u4e09\u952e\u4e0b\u5355\u65b9\u4fbf\u5feb\u6377\u3002\u670d\u52a1\u53f7\u76f4\u63a5\u4e0b\u5355\uff0c\u652f\u6301\u8d27\u5230\u4ed8\u6b3e\uff01
p5374
sVRemarkPYInitial
p5375
g52
sVContactFlag
p5376
I3
sVUin
p5377
I0
sVNickName
p5378
V\u997f\u4e86\u4e48\u7f51\u4e0a\u8ba2\u9910
p5379
sVAppAccountFlag
p5380
I0
sVVerifyFlag
p5381
I24
sVRemarkPYQuanPin
p5382
g52
sVHeadImgUrl
p5383
V/cgi-bin/mmwebwx-bin/webwxgeticon?seq=643134249&username=@5e0221fefdeb4e3da64ff18c1aa8a4d2&skey=@crypt_915d192c_859cf8b7c20c6eeafe0c834301ece725
p5384
sVKeyWord
p5385
Vgh_
p5386
sVProvince
p5387
V\u4e0a\u6d77
p5388
sVPYInitial
p5389
VELMWSDC
p5390
sVRemarkName
p5391
g52
sVIsOwner
p5392
I0
sVSex
p5393
I0
sVStarFriend
p5394
I0
sVHideInputBarFlag
p5395
I0
sVChatRoomId
p5396
I0
sVEncryChatRoomId
p5397
g52
sVAttrStatus
p5398
I0
sVStatues
p5399
I0
stp5400
Rp5401
I1
bag34
(g4617
g39
(dp5402
VUserName
p5403
V@f185a665435b7802898cd37be17e4d7d
p5404
sVCity
p5405
V\u6d66\u4e1c\u65b0\u533a
p5406
sVSnsFlag
p5407
I0
sVDisplayName
p5408
g52
sVUniFriend
p5409
I0
sVMemberCount
p5410
I0
sVOwnerUin
p5411
I0
sVMemberList
p5412
g50
sVAlias
p5413
g52
sVPYQuanPin
p5414
Vhaoshiqiaokeli
p5415
sVSignature
p5416
V\u597d\u65f6\u5de7\u514b\u529b\uff0c\u597d\u65f6\u4e00\u5f00\uff0c\u597d\u4e8b\u5373\u6765\u3002
p5417
sVRemarkPYInitial
p5418
g52
sVContactFlag
p5419
I3
sVUin
p5420
I0
sVNickName
p5421
V\u597d\u65f6\u5de7\u514b\u529b
p5422
sVAppAccountFlag
p5423
I0
sVVerifyFlag
p5424
I8
sVRemarkPYQuanPin
p5425
g52
sVHeadImgUrl
p5426
V/cgi-bin/mmwebwx-bin/webwxgeticon?seq=635103740&username=@f185a665435b7802898cd37be17e4d7d&skey=@crypt_915d192c_859cf8b7c20c6eeafe0c834301ece725
p5427
sVKeyWord
p5428
Vgh_
p5429
sVProvince
p5430
V\u4e0a\u6d77
p5431
sVPYInitial
p5432
VHSQKL
p5433
sVRemarkName
p5434
g52
sVIsOwner
p5435
I0
sVSex
p5436
I0
sVStarFriend
p5437
I0
sVHideInputBarFlag
p5438
I0
sVChatRoomId
p5439
I0
sVEncryChatRoomId
p5440
g52
sVAttrStatus
p5441
I0
sVStatues
p5442
I0
stp5443
Rp5444
I1
bag34
(g4617
g39
(dp5445
VUserName
p5446
V@e47016789f70264632aa85e14b6a76d1
p5447
sVCity
p5448
V\u6d77\u6dc0
p5449
sVSnsFlag
p5450
I0
sVDisplayName
p5451
g52
sVUniFriend
p5452
I0
sVMemberCount
p5453
I0
sVOwnerUin
p5454
I0
sVMemberList
p5455
g50
sVAlias
p5456
Vdocbank
p5457
sVPYQuanPin
p5458
Vdaokebaba
p5459
sVSignature
p5460
V\u9053\u5ba2\u5df4\u5df4\uff0c\u5728\u7ebf\u6587\u6863\u5206\u4eab\u5e73\u53f0\uff0c\u81f4\u529b\u4e8e\u4e3a\u6570\u4ebf\u4e92\u8054\u7f51\u7528\u6237\u6253\u9020\u81ea\u7531\u4ea4\u6d41\u4e0e\u5e73\u7b49\u5b66\u4e60\u7684\u5f00\u653e\u5f0f\u4e92\u52a8\u5e73\u53f0\u3002
p5461
sVRemarkPYInitial
p5462
g52
sVContactFlag
p5463
I3
sVUin
p5464
I0
sVNickName
p5465
V\u9053\u5ba2\u5df4\u5df4
p5466
sVAppAccountFlag
p5467
I0
sVVerifyFlag
p5468
I24
sVRemarkPYQuanPin
p5469
g52
sVHeadImgUrl
p5470
V/cgi-bin/mmwebwx-bin/webwxgeticon?seq=646435522&username=@e47016789f70264632aa85e14b6a76d1&skey=@crypt_915d192c_859cf8b7c20c6eeafe0c834301ece725
p5471
sVKeyWord
p5472
Vgh_
p5473
sVProvince
p5474
V\u5317\u4eac
p5475
sVPYInitial
p5476
VDKBB
p5477
sVRemarkName
p5478
g52
sVIsOwner
p5479
I0
sVSex
p5480
I0
sVStarFriend
p5481
I0
sVHideInputBarFlag
p5482
I0
sVChatRoomId
p5483
I0
sVEncryChatRoomId
p5484
g52
sVAttrStatus
p5485
I0
sVStatues
p5486
I0
stp5487
Rp5488
I1
bag34
(g4617
g39
(dp5489
VUserName
p5490
V@a79d4d4d969b7cfec2966c016abc9635
p5491
sVCity
p5492
V\u53a6\u95e8
p5493
sVSnsFlag
p5494
I0
sVDisplayName
p5495
g52
sVUniFriend
p5496
I0
sVMemberCount
p5497
I0
sVOwnerUin
p5498
I0
sVMemberList
p5499
g50
sVAlias
p5500
Vcha-yan
p5501
sVPYQuanPin
p5502
Vchayan
p5503
sVSignature
p5504
V\u8fd9\u4e2a\u662f\u771f\u7684CHA\u7814\u5594~&gt;&lt;\u4e00\u72e0\u5fc3\u8fd8\u662f\u6362\u4e86\u4e2a\u53f7\u5462\u2026\u2026
p5505
sVRemarkPYInitial
p5506
g52
sVContactFlag
p5507
I1
sVUin
p5508
I0
sVNickName
p5509
Vcha\u7814
p5510
sVAppAccountFlag
p5511
I0
sVVerifyFlag
p5512
I8
sVRemarkPYQuanPin
p5513
g52
sVHeadImgUrl
p5514
V/cgi-bin/mmwebwx-bin/webwxgeticon?seq=643121724&username=@a79d4d4d969b7cfec2966c016abc9635&skey=@crypt_915d192c_859cf8b7c20c6eeafe0c834301ece725
p5515
sVKeyWord
p5516
Vgh_
p5517
sVProvince
p5518
V\u798f\u5efa
p5519
sVPYInitial
p5520
VCHAY
p5521
sVRemarkName
p5522
g52
sVIsOwner
p5523
I0
sVSex
p5524
I0
sVStarFriend
p5525
I0
sVHideInputBarFlag
p5526
I0
sVChatRoomId
p5527
I0
sVEncryChatRoomId
p5528
g52
sVAttrStatus
p5529
I0
sVStatues
p5530
I0
stp5531
Rp5532
I1
bag34
(g4617
g39
(dp5533
VUserName
p5534
V@b212f5496039316e9bf1020b788e3778
p5535
sVCity
p5536
V\u6d77\u6dc0
p5537
sVSnsFlag
p5538
I0
sVDisplayName
p5539
g52
sVUniFriend
p5540
I0
sVMemberCount
p5541
I0
sVOwnerUin
p5542
I0
sVMemberList
p5543
g50
sVAlias
p5544
Vcishidaidongmanshe
p5545
sVPYQuanPin
p5546
Vqinghuadaxuexueshengcishidaidongmanshe
p5547
sVSignature
p5548
V\u6e05\u534e\u5927\u5b66\u5b66\u751f\u6b21\u4e16\u4ee3\u52a8\u6f2b\u793e\u662f\u6e05\u534e\u6821\u5185\u552f\u4e00\u4e00\u4e2a\u52a8\u6f2b\u6e38\u620f\u540c\u597d\u793e\u56e2\u3002\u534f\u4f1a\u7406\u5ff5\u4e3a\u201c\u670d\u52a1\u540c\u597d\u4eba\u7fa4\uff0c\u652f\u6301\u539f\u521b\u529b\u91cf\uff0c\u5ba3\u4f20\u52a8\u6f2b\u6587\u5316\u201d\u3002\u6b64\u516c\u4f17\u8d26\u53f7\u7528\u4e8e\u53d1\u5e03\u5404\u7c7b\u6d3b\u52a8\u4fe1\u606f\uff0c\u6b22\u8fce\u52a0\u5165\uff01
p5549
sVRemarkPYInitial
p5550
g52
sVContactFlag
p5551
I1
sVUin
p5552
I0
sVNickName
p5553
V\u6e05\u534e\u5927\u5b66\u5b66\u751f\u6b21\u4e16\u4ee3\u52a8\u6f2b\u793e
p5554
sVAppAccountFlag
p5555
I0
sVVerifyFlag
p5556
I8
sVRemarkPYQuanPin
p5557
g52
sVHeadImgUrl
p5558
V/cgi-bin/mmwebwx-bin/webwxgeticon?seq=623484970&username=@b212f5496039316e9bf1020b788e3778&skey=@crypt_915d192c_859cf8b7c20c6eeafe0c834301ece725
p5559
sVKeyWord
p5560
Vgh_
p5561
sVProvince
p5562
V\u5317\u4eac
p5563
sVPYInitial
p5564
VQHDXXSCSDDMS
p5565
sVRemarkName
p5566
g52
sVIsOwner
p5567
I0
sVSex
p5568
I0
sVStarFriend
p5569
I0
sVHideInputBarFlag
p5570
I0
sVChatRoomId
p5571
I0
sVEncryChatRoomId
p5572
g52
sVAttrStatus
p5573
I0
sVStatues
p5574
I0
stp5575
Rp5576
I1
bag34
(g4617
g39
(dp5577
VUserName
p5578
V@f37916532a619f6549d6a869234f9433
p5579
sVCity
p5580
V\u6d77\u6dc0
p5581
sVSnsFlag
p5582
I0
sVDisplayName
p5583
g52
sVUniFriend
p5584
I0
sVMemberCount
p5585
I0
sVOwnerUin
p5586
I0
sVMemberList
p5587
g50
sVAlias
p5588
Vjisedaisound
p5589
sVPYQuanPin
p5590
Vcishidai1411kbps
p5591
sVSignature
p5592
V\u8be5\u516c\u4f17\u53f7\u7531\u6b21\u4e16\u4ee3\u52a8\u6f2b\u793e\u97f3\u58f0\u90e8\u8fd0\u8425\uff0c\u4e3b\u8981\u7528\u4e8e\u53d1\u5e03\u97f3\u4e50\u63a8\u8350\u53ca\u793e\u56e2\u5176\u4ed6\u97f3\u4e50\u76f8\u5173\u4fe1\u606f\u3002\u987a\u4fbf\uff0c\u540d\u5b57\u91cc\u76841411k\u662f\u9a97\u4eba\u7684\uff0c\u6211\u4eec\u600e\u4e48\u53ef\u80fd\u53d1\u90a3\u4e48\u5927\u7684\u97f3\u9891\uff08
p5593
sVRemarkPYInitial
p5594
g52
sVContactFlag
p5595
I1
sVUin
p5596
I0
sVNickName
p5597
V\u6b21\u4e16\u4ee31411kbps
p5598
sVAppAccountFlag
p5599
I0
sVVerifyFlag
p5600
I8
sVRemarkPYQuanPin
p5601
g52
sVHeadImgUrl
p5602
V/cgi-bin/mmwebwx-bin/webwxgeticon?seq=625570258&username=@f37916532a619f6549d6a869234f9433&skey=@crypt_915d192c_859cf8b7c20c6eeafe0c834301ece725
p5603
sVKeyWord
p5604
Vgh_
p5605
sVProvince
p5606
V\u5317\u4eac
p5607
sVPYInitial
p5608
VCSD1411KBPS
p5609
sVRemarkName
p5610
g52
sVIsOwner
p5611
I0
sVSex
p5612
I0
sVStarFriend
p5613
I0
sVHideInputBarFlag
p5614
I0
sVChatRoomId
p5615
I0
sVEncryChatRoomId
p5616
g52
sVAttrStatus
p5617
I0
sVStatues
p5618
I0
stp5619
Rp5620
I1
bag34
(g4617
g39
(dp5621
VUserName
p5622
V@3dfd2914c689a97facd97dfd293398f1
p5623
sVCity
p5624
V\u6d77\u6dc0
p5625
sVSnsFlag
p5626
I0
sVDisplayName
p5627
g52
sVUniFriend
p5628
I0
sVMemberCount
p5629
I0
sVOwnerUin
p5630
I0
sVMemberList
p5631
g50
sVAlias
p5632
g52
sVPYQuanPin
p5633
Vjisiwuweixinpingtai
p5634
sVSignature
p5635
V\u7528\u6765\u5728\u73ed\u7ea7\u5185\u90e8\u63a8\u9001\u6d88\u606f\uff0c\u4e3a\u73ed\u7ea7\u540c\u5b66\u4eec\u7684\u5b66\u4e60\u751f\u6d3b\u63d0\u4f9b\u4fbf\u5229\uff0c\u589e\u5f3a\u540c\u5b66\u4eec\u7684\u73ed\u7ea7\u51dd\u805a\u611f\u3002
p5636
sVRemarkPYInitial
p5637
g52
sVContactFlag
p5638
I1
sVUin
p5639
I0
sVNickName
p5640
V\u8ba1\u56db\u4e94\u5fae\u4fe1\u5e73\u53f0
p5641
sVAppAccountFlag
p5642
I0
sVVerifyFlag
p5643
I8
sVRemarkPYQuanPin
p5644
g52
sVHeadImgUrl
p5645
V/cgi-bin/mmwebwx-bin/webwxgeticon?seq=624410241&username=@3dfd2914c689a97facd97dfd293398f1&skey=@crypt_915d192c_859cf8b7c20c6eeafe0c834301ece725
p5646
sVKeyWord
p5647
Vgh_
p5648
sVProvince
p5649
V\u5317\u4eac
p5650
sVPYInitial
p5651
VJSWWXPT
p5652
sVRemarkName
p5653
g52
sVIsOwner
p5654
I0
sVSex
p5655
I0
sVStarFriend
p5656
I0
sVHideInputBarFlag
p5657
I0
sVChatRoomId
p5658
I0
sVEncryChatRoomId
p5659
g52
sVAttrStatus
p5660
I0
sVStatues
p5661
I0
stp5662
Rp5663
I1
bag34
(g4617
g39
(dp5664
VUserName
p5665
V@2f2915a943e690b61723cad31069d011
p5666
sVCity
p5667
V\u6d77\u6dc0
p5668
sVSnsFlag
p5669
I0
sVDisplayName
p5670
g52
sVUniFriend
p5671
I0
sVMemberCount
p5672
I0
sVOwnerUin
p5673
I0
sVMemberList
p5674
g50
sVAlias
p5675
Vfuture_acg
p5676
sVPYQuanPin
p5677
g52
sVSignature
p5678
V\u6e05\u534e\u5927\u5b66\u672a\u6765\u52a8\u6f2b\u6e38\u620f\u6280\u672f\u5174\u8da3\u56e2\u961f\u5b98\u65b9\u5e73\u53f0\uff01\u56e2\u961f\u65e8\u5728\u8fdb\u884c\u52a8\u6f2b\u6e38\u620f\u7814\u7a76\u4e0e\u521b\u4f5c\uff0c \u9f13\u52b1\u539f\u521b\u52a8\u6f2b\u6e38\u620f\u4f5c\u54c1\uff0c\u57f9\u517b\u52a8\u6f2b\u6e38\u620f\u4ea7\u4e1a\u521b\u65b0\u4eba\u624d\uff01
p5679
sVRemarkPYInitial
p5680
g52
sVContactFlag
p5681
I1
sVUin
p5682
I0
sVNickName
p5683
Vgh_9e3cb7171185
p5684
sVAppAccountFlag
p5685
I0
sVVerifyFlag
p5686
I8
sVRemarkPYQuanPin
p5687
g52
sVHeadImgUrl
p5688
V/cgi-bin/mmwebwx-bin/webwxgeticon?seq=642070920&username=@2f2915a943e690b61723cad31069d011&skey=@crypt_915d192c_859cf8b7c20c6eeafe0c834301ece725
p5689
sVKeyWord
p5690
Vgh_
p5691
sVProvince
p5692
V\u5317\u4eac
p5693
sVPYInitial
p5694
g52
sVRemarkName
p5695
g52
sVIsOwner
p5696
I0
sVSex
p5697
I0
sVStarFriend
p5698
I0
sVHideInputBarFlag
p5699
I0
sVChatRoomId
p5700
I0
sVEncryChatRoomId
p5701
g52
sVAttrStatus
p5702
I0
sVStatues
p5703
I0
stp5704
Rp5705
I1
bag34
(g4617
g39
(dp5706
VUserName
p5707
V@8183cfcdbe780c93be6ee28f9e3166a5
p5708
sVCity
p5709
V\u6d77\u6dc0
p5710
sVSnsFlag
p5711
I0
sVDisplayName
p5712
g52
sVUniFriend
p5713
I0
sVMemberCount
p5714
I0
sVOwnerUin
p5715
I0
sVMemberList
p5716
g50
sVAlias
p5717
Vjiujingzixun
p5718
sVPYQuanPin
p5719
Vjiujingzixun
p5720
sVSignature
p5721
V\u6e05\u534e\u5927\u5b66\u8ba1\u7b97\u673a\u7cfb\u9152\u4e95\u8d44\u8baf\uff0c\u8d35\u7cfb\u7684\u6587\u4f53\u6d3b\u52a8\u3001\u751f\u6d3b\u4fe1\u606f\u90fd\u5728\u8fd9\u91cc\u3002\u5173\u6ce8\u9152\u4e95\u8d44\u8baf\uff0c\u4e86\u89e3\u9152\u4e95\u4eba\u7684\u65e5\u5e38\u3002
p5722
sVRemarkPYInitial
p5723
g52
sVContactFlag
p5724
I1
sVUin
p5725
I0
sVNickName
p5726
V\u9152\u4e95\u8d44\u8baf
p5727
sVAppAccountFlag
p5728
I0
sVVerifyFlag
p5729
I8
sVRemarkPYQuanPin
p5730
g52
sVHeadImgUrl
p5731
V/cgi-bin/mmwebwx-bin/webwxgeticon?seq=622450115&username=@8183cfcdbe780c93be6ee28f9e3166a5&skey=@crypt_915d192c_859cf8b7c20c6eeafe0c834301ece725
p5732
sVKeyWord
p5733
Vgh_
p5734
sVProvince
p5735
V\u5317\u4eac
p5736
sVPYInitial
p5737
VJJZX
p5738
sVRemarkName
p5739
g52
sVIsOwner
p5740
I0
sVSex
p5741
I0
sVStarFriend
p5742
I0
sVHideInputBarFlag
p5743
I0
sVChatRoomId
p5744
I0
sVEncryChatRoomId
p5745
g52
sVAttrStatus
p5746
I0
sVStatues
p5747
I0
stp5748
Rp5749
I1
bag34
(g4617
g39
(dp5750
VUserName
p5751
V@3215b39b6e0a31c493420bac0a620962
p5752
sVCity
p5753
V\u6d77\u6dc0
p5754
sVSnsFlag
p5755
I0
sVDisplayName
p5756
g52
sVUniFriend
p5757
I0
sVMemberCount
p5758
I0
sVOwnerUin
p5759
I0
sVMemberList
p5760
g50
sVAlias
p5761
VTHU-xiaoai
p5762
sVPYQuanPin
p5763
Vaishengquan
p5764
sVSignature
p5765
V\u6e05\u534e\u5927\u5b66\u5b66\u751f\u4f1a\u751f\u6d3b\u6743\u76ca\u90e8\u5b98\u65b9\u4fe1\u606f\u5e73\u53f0\uff0c\u5173\u6ce8\u827e\u751f\u6743\uff0c\u8f7b\u677e\u83b7\u53d6\u65e5\u5e38\u751f\u6d3b\u8d34\u58eb\uff0c\u5b9e\u65f6\u611f\u53d7\u6821\u56ed\u6743\u76ca\u5de5\u4f5c\u8109\u640f\uff01
p5766
sVRemarkPYInitial
p5767
g52
sVContactFlag
p5768
I1
sVUin
p5769
I0
sVNickName
p5770
V\u827e\u751f\u6743
p5771
sVAppAccountFlag
p5772
I0
sVVerifyFlag
p5773
I8
sVRemarkPYQuanPin
p5774
g52
sVHeadImgUrl
p5775
V/cgi-bin/mmwebwx-bin/webwxgeticon?seq=628734978&username=@3215b39b6e0a31c493420bac0a620962&skey=@crypt_915d192c_859cf8b7c20c6eeafe0c834301ece725
p5776
sVKeyWord
p5777
Vgh_
p5778
sVProvince
p5779
V\u5317\u4eac
p5780
sVPYInitial
p5781
VASQ
p5782
sVRemarkName
p5783
g52
sVIsOwner
p5784
I0
sVSex
p5785
I0
sVStarFriend
p5786
I0
sVHideInputBarFlag
p5787
I0
sVChatRoomId
p5788
I0
sVEncryChatRoomId
p5789
g52
sVAttrStatus
p5790
I0
sVStatues
p5791
I0
stp5792
Rp5793
I1
bag34
(g4617
g39
(dp5794
VUserName
p5795
V@dc41d066fabc403272edf37ae084b64c
p5796
sVCity
p5797
g52
sVSnsFlag
p5798
I0
sVDisplayName
p5799
g52
sVUniFriend
p5800
I0
sVMemberCount
p5801
I0
sVOwnerUin
p5802
I0
sVMemberList
p5803
g50
sVAlias
p5804
Vhellothu
p5805
sVPYQuanPin
p5806
Vhaluoqinghua
p5807
sVSignature
p5808
V\u5927\u5b66\u751f\u7684\u8d44\u8baf\u5e73\u53f0
p5809
sVRemarkPYInitial
p5810
g52
sVContactFlag
p5811
I1
sVUin
p5812
I0
sVNickName
p5813
V\u54c8\u5570\u6e05\u534e
p5814
sVAppAccountFlag
p5815
I0
sVVerifyFlag
p5816
I8
sVRemarkPYQuanPin
p5817
g52
sVHeadImgUrl
p5818
V/cgi-bin/mmwebwx-bin/webwxgeticon?seq=625060893&username=@dc41d066fabc403272edf37ae084b64c&skey=@crypt_915d192c_859cf8b7c20c6eeafe0c834301ece725
p5819
sVKeyWord
p5820
Vgh_
p5821
sVProvince
p5822
V\u5317\u4eac
p5823
sVPYInitial
p5824
VHLQH
p5825
sVRemarkName
p5826
g52
sVIsOwner
p5827
I0
sVSex
p5828
I0
sVStarFriend
p5829
I0
sVHideInputBarFlag
p5830
I0
sVChatRoomId
p5831
I0
sVEncryChatRoomId
p5832
g52
sVAttrStatus
p5833
I0
sVStatues
p5834
I0
stp5835
Rp5836
I1
bag34
(g4617
g39
(dp5837
VUserName
p5838
V@5671dc5e395a57efcc82c1427409f3b0
p5839
sVCity
p5840
V\u6d77\u6dc0
p5841
sVSnsFlag
p5842
I0
sVDisplayName
p5843
g52
sVUniFriend
p5844
I0
sVMemberCount
p5845
I0
sVOwnerUin
p5846
I0
sVMemberList
p5847
g50
sVAlias
p5848
Vthusfa
p5849
sVPYQuanPin
p5850
Vdaqinghuanxie
p5851
sVSignature
p5852
V\u7231\u79d1\u5e7b\uff0c\u7231\u5927\u6e05
p5853
sVRemarkPYInitial
p5854
g52
sVContactFlag
p5855
I3
sVUin
p5856
I0
sVNickName
p5857
V\u5927\u6e05\u5e7b\u534f
p5858
sVAppAccountFlag
p5859
I0
sVVerifyFlag
p5860
I8
sVRemarkPYQuanPin
p5861
g52
sVHeadImgUrl
p5862
V/cgi-bin/mmwebwx-bin/webwxgeticon?seq=646441166&username=@5671dc5e395a57efcc82c1427409f3b0&skey=@crypt_915d192c_859cf8b7c20c6eeafe0c834301ece725
p5863
sVKeyWord
p5864
Vgh_
p5865
sVProvince
p5866
V\u5317\u4eac
p5867
sVPYInitial
p5868
VDQHX
p5869
sVRemarkName
p5870
g52
sVIsOwner
p5871
I0
sVSex
p5872
I0
sVStarFriend
p5873
I0
sVHideInputBarFlag
p5874
I0
sVChatRoomId
p5875
I0
sVEncryChatRoomId
p5876
g52
sVAttrStatus
p5877
I0
sVStatues
p5878
I0
stp5879
Rp5880
I1
bag34
(g4617
g39
(dp5881
VUserName
p5882
V@2436260b439159e128bd97df1432ddeb
p5883
sVCity
p5884
V\u5357\u4eac
p5885
sVSnsFlag
p5886
I0
sVDisplayName
p5887
g52
sVUniFriend
p5888
I0
sVMemberCount
p5889
I0
sVOwnerUin
p5890
I0
sVMemberList
p5891
g50
sVAlias
p5892
Vnjga_zjc
p5893
sVPYQuanPin
p5894
Vshichengjingxing
p5895
sVSignature
p5896
V\u5357\u4eac\u516c\u5b89\u201c\u77f3\u57ce\u8b66\u661f\u201d\u8bc4\u9009\u5e73\u53f0
p5897
sVRemarkPYInitial
p5898
g52
sVContactFlag
p5899
I3
sVUin
p5900
I0
sVNickName
p5901
V\u77f3\u57ce\u8b66\u661f
p5902
sVAppAccountFlag
p5903
I0
sVVerifyFlag
p5904
I24
sVRemarkPYQuanPin
p5905
g52
sVHeadImgUrl
p5906
V/cgi-bin/mmwebwx-bin/webwxgeticon?seq=642442192&username=@2436260b439159e128bd97df1432ddeb&skey=@crypt_915d192c_859cf8b7c20c6eeafe0c834301ece725
p5907
sVKeyWord
p5908
Vgh_
p5909
sVProvince
p5910
V\u6c5f\u82cf
p5911
sVPYInitial
p5912
VSCJX
p5913
sVRemarkName
p5914
g52
sVIsOwner
p5915
I0
sVSex
p5916
I0
sVStarFriend
p5917
I0
sVHideInputBarFlag
p5918
I0
sVChatRoomId
p5919
I0
sVEncryChatRoomId
p5920
g52
sVAttrStatus
p5921
I0
sVStatues
p5922
I0
stp5923
Rp5924
I1
bag34
(g4617
g39
(dp5925
VUserName
p5926
V@d06d0cddad892350e0e3e0adb8da7b22b9cba4c487039748f34879f09bc01c83
p5927
sVCity
p5928
V\u671d\u9633
p5929
sVSnsFlag
p5930
I0
sVDisplayName
p5931
g52
sVUniFriend
p5932
I0
sVMemberCount
p5933
I0
sVOwnerUin
p5934
I0
sVMemberList
p5935
g50
sVAlias
p5936
Vmeituanwx
p5937
sVPYQuanPin
p5938
Vmeituan
p5939
sVSignature
p5940
V\u7f8e\u56e2\u670d\u52a1\u53f7\uff0c\u5403\u559d\u73a9\u4e50\u5168\u90fd\u6709\u3002\u7cbe\u9009\u4f18\u8d28\u5546\u5bb6\u5c31\u7b49\u4f60\u6765\uff0c\u5927\u989d\u7ea2\u5305\u798f\u5229\u5c31\u7b49\u4f60\u62a2\u3002\u9910\u5385\u7f8e\u98df\u3001\u5916\u5356\u3001\u7535\u5f71\u8d2d\u7968\u3001\u9152\u5e97\u65c5\u6e38\u3001\u4f11\u95f2\u5a31\u4e50\uff0c\u8fd8\u6709\u4ec0\u4e48\u5417\uff1f\u5173\u6ce8\u6211\u4eec\u5c31\u77e5\u9053\u4e86\uff01
p5941
sVRemarkPYInitial
p5942
g52
sVContactFlag
p5943
I3
sVUin
p5944
I0
sVNickName
p5945
V\u7f8e\u56e2
p5946
sVAppAccountFlag
p5947
I0
sVVerifyFlag
p5948
I24
sVRemarkPYQuanPin
p5949
g52
sVHeadImgUrl
p5950
V/cgi-bin/mmwebwx-bin/webwxgeticon?seq=643132642&username=@d06d0cddad892350e0e3e0adb8da7b22b9cba4c487039748f34879f09bc01c83&skey=@crypt_915d192c_859cf8b7c20c6eeafe0c834301ece725
p5951
sVKeyWord
p5952
g52
sVProvince
p5953
V\u5317\u4eac
p5954
sVPYInitial
p5955
VMT
p5956
sVRemarkName
p5957
g52
sVIsOwner
p5958
I0
sVSex
p5959
I0
sVStarFriend
p5960
I0
sVHideInputBarFlag
p5961
I0
sVChatRoomId
p5962
I0
sVEncryChatRoomId
p5963
g52
sVAttrStatus
p5964
I0
sVStatues
p5965
I0
stp5966
Rp5967
I1
bag34
(g4617
g39
(dp5968
VUserName
p5969
V@a237801320f2a2a7429c8c4790dea51e
p5970
sVCity
p5971
V\u6d66\u4e1c\u65b0\u533a
p5972
sVSnsFlag
p5973
I0
sVDisplayName
p5974
g52
sVUniFriend
p5975
I0
sVMemberCount
p5976
I0
sVOwnerUin
p5977
I0
sVMemberList
p5978
g50
sVAlias
p5979
Vxiaojue0121
p5980
sVPYQuanPin
p5981
Vyizhixiaojue
p5982
sVSignature
p5983
V\u6b22\u8fce\u5173\u6ce8 \u5c0f\u7edd\u7684\u65e5\u5e38\uff0c\u89c6\u9891\u90fd\u4f1a\u5728\u8fd9\u91cc\u7b2c\u4e00\u65f6\u95f4\u66f4\u65b0 \u5f53\u7136\u4e5f\u4f1a\u804a\u804a\u5929\u56de\u590d\u5927\u5bb6\u4ec0\u4e48\u7684
p5984
sVRemarkPYInitial
p5985
g52
sVContactFlag
p5986
I3
sVUin
p5987
I0
sVNickName
p5988
V\u4e00\u53ea\u5c0f\u7edd
p5989
sVAppAccountFlag
p5990
I0
sVVerifyFlag
p5991
I8
sVRemarkPYQuanPin
p5992
g52
sVHeadImgUrl
p5993
V/cgi-bin/mmwebwx-bin/webwxgeticon?seq=648055777&username=@a237801320f2a2a7429c8c4790dea51e&skey=@crypt_915d192c_859cf8b7c20c6eeafe0c834301ece725
p5994
sVKeyWord
p5995
Vgh_
p5996
sVProvince
p5997
V\u4e0a\u6d77
p5998
sVPYInitial
p5999
VYZXJ
p6000
sVRemarkName
p6001
g52
sVIsOwner
p6002
I0
sVSex
p6003
I0
sVStarFriend
p6004
I0
sVHideInputBarFlag
p6005
I0
sVChatRoomId
p6006
I0
sVEncryChatRoomId
p6007
g52
sVAttrStatus
p6008
I0
sVStatues
p6009
I0
stp6010
Rp6011
I1
bag34
(g4617
g39
(dp6012
VUserName
p6013
V@fc6992172c3f73201fbf86a23e03b924
p6014
sVCity
p6015
V\u957f\u5b81
p6016
sVSnsFlag
p6017
I0
sVDisplayName
p6018
g52
sVUniFriend
p6019
I0
sVMemberCount
p6020
I0
sVOwnerUin
p6021
I0
sVMemberList
p6022
g50
sVAlias
p6023
Vdptuan
p6024
sVPYQuanPin
p6025
Vdazhongdianping
p6026
sVSignature
p6027
V\u5927\u4f17\u70b9\u8bc4\u670d\u52a1\u53f7\uff0c\u4e3a\u4f60\u63d0\u4f9b\u8eab\u8fb9\u7684\u5403\u559d\u73a9\u4e50\u4fe1\u606f\uff0c\u548c\u4f18\u8d28\u4f4e\u4ef7\u7684\u56e2\u8d2d\u670d\u52a1\u3002\u6700\u4e13\u4e1a\u7684\u4e2d\u56fd\u57ce\u5e02\u6d88\u8d39\u6307\u5357\uff1a\u9910\u9986\u7f8e\u98df\u3001\u8d2d\u7269\u3001\u7535\u5f71\u3001\u9152\u5e97\u3001KTV\u3001\u5916\u5356\u5404\u79cd\u4f18\u60e0\u4e00\u5e94\u4ff1\u5168\uff0c\u8fd8\u6709\u6700\u5b9e\u60e0\u6700\u65b0\u6f6e\u7684\u6d3b\u52a8\u8d44\u8baf\u3002
p6028
sVRemarkPYInitial
p6029
g52
sVContactFlag
p6030
I3
sVUin
p6031
I0
sVNickName
p6032
V\u5927\u4f17\u70b9\u8bc4
p6033
sVAppAccountFlag
p6034
I0
sVVerifyFlag
p6035
I24
sVRemarkPYQuanPin
p6036
g52
sVHeadImgUrl
p6037
V/cgi-bin/mmwebwx-bin/webwxgeticon?seq=648062804&username=@fc6992172c3f73201fbf86a23e03b924&skey=@crypt_915d192c_859cf8b7c20c6eeafe0c834301ece725
p6038
sVKeyWord
p6039
Vgh_
p6040
sVProvince
p6041
V\u4e0a\u6d77
p6042
sVPYInitial
p6043
VDZDP
p6044
sVRemarkName
p6045
g52
sVIsOwner
p6046
I0
sVSex
p6047
I0
sVStarFriend
p6048
I0
sVHideInputBarFlag
p6049
I0
sVChatRoomId
p6050
I0
sVEncryChatRoomId
p6051
g52
sVAttrStatus
p6052
I0
sVStatues
p6053
I0
stp6054
Rp6055
I1
bag34
(g4617
g39
(dp6056
VUserName
p6057
V@50fc3e3d19e2d24b2d1e51ed16083ca1
p6058
sVCity
p6059
V\u6d77\u6dc0
p6060
sVSnsFlag
p6061
I0
sVDisplayName
p6062
g52
sVUniFriend
p6063
I0
sVMemberCount
p6064
I0
sVOwnerUin
p6065
I0
sVMemberList
p6066
g50
sVAlias
p6067
Vsmjttbs
p6068
sVPYQuanPin
p6069
Vshuimujintang
p6070
sVSignature
p6071
V\u6c34\u6728\u9526\u5802\u4e0d\u4ec5\u4f1a\u6ee1\u8db3\u4f60\u5bf9\u7f8e\u5473\u7684\u8ffd\u6c42\u4f20\u64ad\u5982\u9633\u5149\u822c\u7684\u6b63\u80fd\u91cf\u3002\u6211\u4eec\u7684\u53a8\u5e08\u4f1a\u505a\u83dc\u80fd\u70ed\u821e\uff0c\u6211\u4eec\u7684\u9910\u5385\u6211\u4eec\u8f93\u51fa\u5feb\u4e50\uff0c\u6536\u83b7\u7f8e\u597d\uff1b\u6211\u4eec\u611f\u6069\u5728\u5fc3\uff0c\u5e38\u4e50\u4e8e\u4e16\u3002
p6072
sVRemarkPYInitial
p6073
g52
sVContactFlag
p6074
I3
sVUin
p6075
I0
sVNickName
p6076
V\u6c34\u6728\u9526\u5802
p6077
sVAppAccountFlag
p6078
I0
sVVerifyFlag
p6079
I24
sVRemarkPYQuanPin
p6080
g52
sVHeadImgUrl
p6081
V/cgi-bin/mmwebwx-bin/webwxgeticon?seq=651002249&username=@50fc3e3d19e2d24b2d1e51ed16083ca1&skey=@crypt_915d192c_859cf8b7c20c6eeafe0c834301ece725
p6082
sVKeyWord
p6083
Vgh_
p6084
sVProvince
p6085
V\u5317\u4eac
p6086
sVPYInitial
p6087
VSMJT
p6088
sVRemarkName
p6089
g52
sVIsOwner
p6090
I0
sVSex
p6091
I0
sVStarFriend
p6092
I0
sVHideInputBarFlag
p6093
I0
sVChatRoomId
p6094
I0
sVEncryChatRoomId
p6095
g52
sVAttrStatus
p6096
I0
sVStatues
p6097
I0
stp6098
Rp6099
I1
bag34
(g4617
g39
(dp6100
VUserName
p6101
V@ccdd8cb65b73f777310cd8acf00330fe
p6102
sVCity
p6103
V\u6df1\u5733
p6104
sVSnsFlag
p6105
I0
sVDisplayName
p6106
g52
sVUniFriend
p6107
I0
sVMemberCount
p6108
I0
sVOwnerUin
p6109
I0
sVMemberList
p6110
g50
sVAlias
p6111
VSF_FWRX4008111111
p6112
sVPYQuanPin
p6113
Vshunfengsuyun
p6114
sVSignature
p6115
V\u6700\u4fbf\u6377\u7684\u987a\u4e30\u901f\u8fd0\u81ea\u52a9\u670d\u52a1\u5e73\u53f0\u3002\u4e0b\u5355\u5bc4\u4ef6\uff0c \u53ca\u65f6\u8ffd\u8e2a\u5feb\u4ef6\u72b6\u6001\uff0c\u4e3b\u52a8\u63a8\u9001\u8def\u7531\u4fe1\u606f\uff0c\u540c\u65f6\u8ba2\u5355\u7ba1\u7406\u3001\u5730\u5740\u7c3f\u7ba1\u7406\u8ba9\u60a8\u653e\u5fc3\u3001\u8212\u5fc3\u3002\u6211\u4eec\u4e00\u76f4\u5728\u52aa\u529b\uff01
p6116
sVRemarkPYInitial
p6117
g52
sVContactFlag
p6118
I3
sVUin
p6119
I0
sVNickName
p6120
V\u987a\u4e30\u901f\u8fd0
p6121
sVAppAccountFlag
p6122
I0
sVVerifyFlag
p6123
I24
sVRemarkPYQuanPin
p6124
g52
sVHeadImgUrl
p6125
V/cgi-bin/mmwebwx-bin/webwxgeticon?seq=651007008&username=@ccdd8cb65b73f777310cd8acf00330fe&skey=@crypt_915d192c_859cf8b7c20c6eeafe0c834301ece725
p6126
sVKeyWord
p6127
Vgh_
p6128
sVProvince
p6129
V\u5e7f\u4e1c
p6130
sVPYInitial
p6131
VSFSY
p6132
sVRemarkName
p6133
g52
sVIsOwner
p6134
I0
sVSex
p6135
I0
sVStarFriend
p6136
I0
sVHideInputBarFlag
p6137
I0
sVChatRoomId
p6138
I0
sVEncryChatRoomId
p6139
g52
sVAttrStatus
p6140
I0
sVStatues
p6141
I0
stp6142
Rp6143
I1
bag34
(g4617
g39
(dp6144
VUserName
p6145
V@df13a89e3a062355c02a91d19b32416a
p6146
sVCity
p6147
V\u957f\u5b81
p6148
sVSnsFlag
p6149
I0
sVDisplayName
p6150
g52
sVUniFriend
p6151
I0
sVMemberCount
p6152
I0
sVOwnerUin
p6153
I0
sVMemberList
p6154
g50
sVAlias
p6155
ViCtrip
p6156
sVPYQuanPin
p6157
Vxiechenglvxingwang
p6158
sVSignature
p6159
V\u643a\u7a0b\u5b98\u65b9\u670d\u52a1\u53f7\u3002\u968f\u65f6\u968f\u5730\u4e3a\u60a8\u63d0\u4f9b\u9152\u5e97\u3001\u673a\u7968\u3001\u5ea6\u5047\u3001\u706b\u8f66\u7968\u3001\u6c7d\u8f66\u7968\u7b49\u7684\u9884\u8ba2\u3001\u54a8\u8be2\u670d\u52a1\u3002\u4e5f\u968f\u65f6\u968f\u5730\u606d\u5019\u9a9a\u6270\u3002\u60a8\u7684\u58f0\u97f3\uff0c\u6211\u4eec\u59cb\u7ec8\u7528\u5fc3\u8046\u542c\u3002
p6160
sVRemarkPYInitial
p6161
g52
sVContactFlag
p6162
I3
sVUin
p6163
I0
sVNickName
p6164
V\u643a\u7a0b\u65c5\u884c\u7f51
p6165
sVAppAccountFlag
p6166
I0
sVVerifyFlag
p6167
I24
sVRemarkPYQuanPin
p6168
g52
sVHeadImgUrl
p6169
V/cgi-bin/mmwebwx-bin/webwxgeticon?seq=651019787&username=@df13a89e3a062355c02a91d19b32416a&skey=@crypt_915d192c_859cf8b7c20c6eeafe0c834301ece725
p6170
sVKeyWord
p6171
Vgh_
p6172
sVProvince
p6173
V\u4e0a\u6d77
p6174
sVPYInitial
p6175
VXCLXW
p6176
sVRemarkName
p6177
g52
sVIsOwner
p6178
I0
sVSex
p6179
I0
sVStarFriend
p6180
I0
sVHideInputBarFlag
p6181
I0
sVChatRoomId
p6182
I0
sVEncryChatRoomId
p6183
g52
sVAttrStatus
p6184
I0
sVStatues
p6185
I0
stp6186
Rp6187
I1
bag34
(g4617
g39
(dp6188
VUserName
p6189
V@c80581244aa13e2a04534e36a9487a36
p6190
sVCity
p6191
V\u5f90\u6c47
p6192
sVSnsFlag
p6193
I0
sVDisplayName
p6194
g52
sVUniFriend
p6195
I0
sVMemberCount
p6196
I0
sVOwnerUin
p6197
I0
sVMemberList
p6198
g50
sVAlias
p6199
Vkfczhongguo
p6200
sVPYQuanPin
p6201
Vkendeji
p6202
sVSignature
p6203
V\u968f\u65f6\u968f\u5730\u83b7\u53d6KFC\u4f18\u60e0\u5238\u3001\u6700\u65b0\u4ea7\u54c1\u548c\u6d3b\u52a8\u4fe1\u606f
p6204
sVRemarkPYInitial
p6205
g52
sVContactFlag
p6206
I3
sVUin
p6207
I0
sVNickName
p6208
V\u80af\u5fb7\u57fa
p6209
sVAppAccountFlag
p6210
I0
sVVerifyFlag
p6211
I24
sVRemarkPYQuanPin
p6212
g52
sVHeadImgUrl
p6213
V/cgi-bin/mmwebwx-bin/webwxgeticon?seq=651021647&username=@c80581244aa13e2a04534e36a9487a36&skey=@crypt_915d192c_859cf8b7c20c6eeafe0c834301ece725
p6214
sVKeyWord
p6215
Vgh_
p6216
sVProvince
p6217
V\u4e0a\u6d77
p6218
sVPYInitial
p6219
VKDJ
p6220
sVRemarkName
p6221
g52
sVIsOwner
p6222
I0
sVSex
p6223
I0
sVStarFriend
p6224
I0
sVHideInputBarFlag
p6225
I0
sVChatRoomId
p6226
I0
sVEncryChatRoomId
p6227
g52
sVAttrStatus
p6228
I0
sVStatues
p6229
I0
stp6230
Rp6231
I1
bag34
(g4617
g39
(dp6232
VUserName
p6233
V@24356ab26395dc5034c23e0355f37a53
p6234
sVCity
p6235
V\u6d77\u6dc0
p6236
sVSnsFlag
p6237
I0
sVDisplayName
p6238
g52
sVUniFriend
p6239
I0
sVMemberCount
p6240
I0
sVOwnerUin
p6241
I0
sVMemberList
p6242
g50
sVAlias
p6243
Vmtgsheep
p6244
sVPYQuanPin
p6245
Vmofamianyang
p6246
sVSignature
p6247
V\u9b54\u6cd5\u7ef5\u7f8a\u4e3a\u5e7f\u5927\u4e07\u667a\u724c\u7231\u597d\u8005\u63d0\u4f9b\u6bd4\u8d5b\u3001\u6536\u85cf\u3001\u8d2d\u4e70\u7b49\u4e0e\u4e07\u667a\u724c\u76f8\u5173\u7684\u6240\u6709\u670d\u52a1\uff0c\u4ee5\u5168\u9762\u3001\u4e13\u4e1a\u3001\u53ef\u4fe1\u8d56\u3001\u9ad8\u4e92\u52a8\u6027\u7684\u5185\u5bb9\uff0c\u591a\u5c42\u6b21\u3001\u591a\u7ef4\u5ea6\u7684\u5e2e\u52a9\u56fd\u5185\u4e07\u667a\u724c\u73a9\u5bb6\uff0c\u662f\u4e2d\u56fd\u6700\u5177\u5f71\u54cd\u529b\u7684\u4e07\u667a\u724c\u5185\u5bb9\u5e73\u53f0
p6248
sVRemarkPYInitial
p6249
g52
sVContactFlag
p6250
I3
sVUin
p6251
I0
sVNickName
p6252
V\u9b54\u6cd5\u7ef5\u7f8a
p6253
sVAppAccountFlag
p6254
I0
sVVerifyFlag
p6255
I24
sVRemarkPYQuanPin
p6256
g52
sVHeadImgUrl
p6257
V/cgi-bin/mmwebwx-bin/webwxgeticon?seq=651026674&username=@24356ab26395dc5034c23e0355f37a53&skey=@crypt_915d192c_859cf8b7c20c6eeafe0c834301ece725
p6258
sVKeyWord
p6259
Vgh_
p6260
sVProvince
p6261
V\u5317\u4eac
p6262
sVPYInitial
p6263
VMFMY
p6264
sVRemarkName
p6265
g52
sVIsOwner
p6266
I0
sVSex
p6267
I0
sVStarFriend
p6268
I0
sVHideInputBarFlag
p6269
I0
sVChatRoomId
p6270
I0
sVEncryChatRoomId
p6271
g52
sVAttrStatus
p6272
I0
sVStatues
p6273
I0
stp6274
Rp6275
I1
bag34
(g4617
g39
(dp6276
VUserName
p6277
V@e4d3b5ad7b1a7421f87842f9accfe3b0
p6278
sVCity
p6279
V\u4e1c\u57ce
p6280
sVSnsFlag
p6281
I0
sVDisplayName
p6282
g52
sVUniFriend
p6283
I0
sVMemberCount
p6284
I0
sVOwnerUin
p6285
I0
sVMemberList
p6286
g50
sVAlias
p6287
Vchexuezhang2014
p6288
sVPYQuanPin
p6289
Vchexuechangyujiantiebanji
p6290
sVSignature
p6291
V\u5173\u6ce8\u201c\u8f66\u5b66\u957f\u9047\u89c1\u94c1\u677f\u9e21\u201d\u5b98\u65b9\u516c\u4f17\u53f7\uff0c\u968f\u65f6\u4e86\u89e3\u83dc\u54c1\u6700\u65b0\u6d88\u606f\u53d1\u5e03\uff0c\u6d3b\u52a8\u516c\u544a\uff0c\u4f1a\u5458\u6743\u76ca\uff0c\u7f8e\u98df\u7ebf\u8def\u4fe1\u606f\uff0c\u6295\u8bc9\u5efa\u8bae\u7b49\u3002\u6bcf\u592910:00-22:00\u606d\u5019\u60a8\u7684\u5149\u4e34\uff0c\u7f8e\u5473\u5168\u5929\u5019\u4f9b\u5e94\uff01
p6292
sVRemarkPYInitial
p6293
g52
sVContactFlag
p6294
I3
sVUin
p6295
I0
sVNickName
p6296
V\u8f66\u5b66\u957f\u9047\u89c1\u94c1\u677f\u9e21
p6297
sVAppAccountFlag
p6298
I0
sVVerifyFlag
p6299
I24
sVRemarkPYQuanPin
p6300
g52
sVHeadImgUrl
p6301
V/cgi-bin/mmwebwx-bin/webwxgeticon?seq=651027597&username=@e4d3b5ad7b1a7421f87842f9accfe3b0&skey=@crypt_915d192c_859cf8b7c20c6eeafe0c834301ece725
p6302
sVKeyWord
p6303
Vgh_
p6304
sVProvince
p6305
V\u5317\u4eac
p6306
sVPYInitial
p6307
VCXCYJTBJ
p6308
sVRemarkName
p6309
g52
sVIsOwner
p6310
I0
sVSex
p6311
I0
sVStarFriend
p6312
I0
sVHideInputBarFlag
p6313
I0
sVChatRoomId
p6314
I0
sVEncryChatRoomId
p6315
g52
sVAttrStatus
p6316
I0
sVStatues
p6317
I0
stp6318
Rp6319
I1
bag34
(g4617
g39
(dp6320
VUserName
p6321
V@aa346a912fc7c46ca81f0d48b40615c6
p6322
sVCity
p6323
V\u660c\u5e73
p6324
sVSnsFlag
p6325
I0
sVDisplayName
p6326
g52
sVUniFriend
p6327
I0
sVMemberCount
p6328
I0
sVOwnerUin
p6329
I0
sVMemberList
p6330
g50
sVAlias
p6331
VMtgFunCard
p6332
sVPYQuanPin
p6333
VMtgFunCard
p6334
sVSignature
p6335
V\u5546\u57ce\u8d2d\u4e70\uff0c\u4fc3\u9500\u4fe1\u606f\uff0c\u6bcf\u5468\u7cbe\u81f4\u6587\u7ae0\u6c47\u603b
p6336
sVRemarkPYInitial
p6337
g52
sVContactFlag
p6338
I1
sVUin
p6339
I0
sVNickName
p6340
VMtgFunCard
p6341
sVAppAccountFlag
p6342
I0
sVVerifyFlag
p6343
I8
sVRemarkPYQuanPin
p6344
g52
sVHeadImgUrl
p6345
V/cgi-bin/mmwebwx-bin/webwxgeticon?seq=657423965&username=@aa346a912fc7c46ca81f0d48b40615c6&skey=@crypt_915d192c_859cf8b7c20c6eeafe0c834301ece725
p6346
sVKeyWord
p6347
Vgh_
p6348
sVProvince
p6349
V\u5317\u4eac
p6350
sVPYInitial
p6351
VMTGFUNCARD
p6352
sVRemarkName
p6353
g52
sVIsOwner
p6354
I0
sVSex
p6355
I0
sVStarFriend
p6356
I0
sVHideInputBarFlag
p6357
I0
sVChatRoomId
p6358
I0
sVEncryChatRoomId
p6359
g52
sVAttrStatus
p6360
I0
sVStatues
p6361
I0
stp6362
Rp6363
I1
bag34
(g4617
g39
(dp6364
VUserName
p6365
V@ff7feeb353b158f99c2d1a39bd9cf09f
p6366
sVCity
p6367
V\u6d77\u6dc0
p6368
sVSnsFlag
p6369
I0
sVDisplayName
p6370
g52
sVUniFriend
p6371
I0
sVMemberCount
p6372
I0
sVOwnerUin
p6373
I0
sVMemberList
p6374
g50
sVAlias
p6375
g52
sVPYQuanPin
p6376
VFunCard
p6377
sVSignature
p6378
V\u5173\u6ce8Funcard\u8ba2\u9605\u53f7\uff0c\u4e86\u89e3\u6700\u524d\u7aef\u7684\u724c\u4ef7\u53d8\u52a8\u3001\u6700\u53e4\u602a\u7684\u6e38\u620f\u8da3\u95fb\u3001\u5c0f\u767d\u90fd\u80fd\u770b\u61c2\u7684\u6218\u672f\u89e3\u6790\uff0c\u8fd8\u6709\u5927\u628a\u7684\u798f\u5229\u6d3b\u52a8\u6d3e\u53d1\u54e6~~
p6379
sVRemarkPYInitial
p6380
g52
sVContactFlag
p6381
I1
sVUin
p6382
I0
sVNickName
p6383
VFunCard
p6384
sVAppAccountFlag
p6385
I0
sVVerifyFlag
p6386
I8
sVRemarkPYQuanPin
p6387
g52
sVHeadImgUrl
p6388
V/cgi-bin/mmwebwx-bin/webwxgeticon?seq=657423970&username=@ff7feeb353b158f99c2d1a39bd9cf09f&skey=@crypt_915d192c_859cf8b7c20c6eeafe0c834301ece725
p6389
sVKeyWord
p6390
Vgh_
p6391
sVProvince
p6392
V\u5317\u4eac
p6393
sVPYInitial
p6394
VFUNCARD
p6395
sVRemarkName
p6396
g52
sVIsOwner
p6397
I0
sVSex
p6398
I0
sVStarFriend
p6399
I0
sVHideInputBarFlag
p6400
I0
sVChatRoomId
p6401
I0
sVEncryChatRoomId
p6402
g52
sVAttrStatus
p6403
I0
sVStatues
p6404
I0
stp6405
Rp6406
I1
bag34
(g4617
g39
(dp6407
VUserName
p6408
V@521f2181f77d9b663b973b691d273b9e
p6409
sVCity
p6410
V\u6b66\u6c49
p6411
sVSnsFlag
p6412
I0
sVDisplayName
p6413
g52
sVUniFriend
p6414
I0
sVMemberCount
p6415
I0
sVOwnerUin
p6416
I0
sVMemberList
p6417
g50
sVAlias
p6418
Vzndmfs
p6419
sVPYQuanPin
p6420
Vgelamagenbaijue
p6421
sVSignature
p6422
Vb\u7ad9up\u4e3b\u7a1a\u5ae9\u7684\u9b54\u6cd5\u5e08\u7684\u516c\u4f17\u53f7
p6423
sVRemarkPYInitial
p6424
g52
sVContactFlag
p6425
I1
sVUin
p6426
I0
sVNickName
p6427
V\u683c\u62c9\u6469\u6839\u4f2f\u7235
p6428
sVAppAccountFlag
p6429
I0
sVVerifyFlag
p6430
I8
sVRemarkPYQuanPin
p6431
g52
sVHeadImgUrl
p6432
V/cgi-bin/mmwebwx-bin/webwxgeticon?seq=657424193&username=@521f2181f77d9b663b973b691d273b9e&skey=@crypt_915d192c_859cf8b7c20c6eeafe0c834301ece725
p6433
sVKeyWord
p6434
Vgh_
p6435
sVProvince
p6436
V\u6e56\u5317
p6437
sVPYInitial
p6438
VGLMGBJ
p6439
sVRemarkName
p6440
g52
sVIsOwner
p6441
I0
sVSex
p6442
I0
sVStarFriend
p6443
I0
sVHideInputBarFlag
p6444
I0
sVChatRoomId
p6445
I0
sVEncryChatRoomId
p6446
g52
sVAttrStatus
p6447
I0
sVStatues
p6448
I0
stp6449
Rp6450
I1
bag34
(g4617
g39
(dp6451
VUserName
p6452
V@336d9083a96335fd453e45386fef811d
p6453
sVCity
p6454
g52
sVSnsFlag
p6455
I0
sVDisplayName
p6456
g52
sVUniFriend
p6457
I0
sVMemberCount
p6458
I0
sVOwnerUin
p6459
I0
sVMemberList
p6460
g50
sVAlias
p6461
Vmeituanwaimai
p6462
sVPYQuanPin
p6463
Vmeituanwaimai
p6464
sVSignature
p6465
V\u9001\u4e0a\u95e8\u7684\u7f8e\u597d\u751f\u6d3b\u3002
p6466
sVRemarkPYInitial
p6467
g52
sVContactFlag
p6468
I3
sVUin
p6469
I0
sVNickName
p6470
V\u7f8e\u56e2\u5916\u5356
p6471
sVAppAccountFlag
p6472
I0
sVVerifyFlag
p6473
I24
sVRemarkPYQuanPin
p6474
g52
sVHeadImgUrl
p6475
V/cgi-bin/mmwebwx-bin/webwxgeticon?seq=657422462&username=@336d9083a96335fd453e45386fef811d&skey=@crypt_915d192c_859cf8b7c20c6eeafe0c834301ece725
p6476
sVKeyWord
p6477
Vgh_
p6478
sVProvince
p6479
V\u5317\u4eac
p6480
sVPYInitial
p6481
VMTWM
p6482
sVRemarkName
p6483
g52
sVIsOwner
p6484
I0
sVSex
p6485
I0
sVStarFriend
p6486
I0
sVHideInputBarFlag
p6487
I0
sVChatRoomId
p6488
I0
sVEncryChatRoomId
p6489
g52
sVAttrStatus
p6490
I0
sVStatues
p6491
I0
stp6492
Rp6493
I1
bag34
(g4617
g39
(dp6494
VUserName
p6495
V@1033d00e3871dc754916ff26ad9f6fd4
p6496
sVCity
p6497
V\u6d66\u4e1c\u65b0\u533a
p6498
sVSnsFlag
p6499
I0
sVDisplayName
p6500
g52
sVUniFriend
p6501
I0
sVMemberCount
p6502
I0
sVOwnerUin
p6503
I0
sVMemberList
p6504
g50
sVAlias
p6505
Vmwbyd-now
p6506
sVPYQuanPin
p6507
Vmeiweibuyongdeng
p6508
sVSignature
p6509
V\u4e0d\u7b49\u4f4d\u7684\u5403\u8d27\u795e\u5668~\u5728\u5bb6\u53d6\u53f7\uff0c\u6392\u5230\u63d0\u9192\uff0c\u63d0\u524d\u70b9\u83dc\uff0c\u66f4\u591a\u9690\u85cf\u529f\u80fd\uff0c\u5173\u6ce8\u6211\u5c31\u77e5\u9053\u54af~
p6510
sVRemarkPYInitial
p6511
g52
sVContactFlag
p6512
I1
sVUin
p6513
I0
sVNickName
p6514
V\u7f8e\u5473\u4e0d\u7528\u7b49
p6515
sVAppAccountFlag
p6516
I0
sVVerifyFlag
p6517
I24
sVRemarkPYQuanPin
p6518
g52
sVHeadImgUrl
p6519
V/cgi-bin/mmwebwx-bin/webwxgeticon?seq=657429218&username=@1033d00e3871dc754916ff26ad9f6fd4&skey=@crypt_915d192c_859cf8b7c20c6eeafe0c834301ece725
p6520
sVKeyWord
p6521
Vgh_
p6522
sVProvince
p6523
V\u4e0a\u6d77
p6524
sVPYInitial
p6525
VMWBYD
p6526
sVRemarkName
p6527
g52
sVIsOwner
p6528
I0
sVSex
p6529
I0
sVStarFriend
p6530
I0
sVHideInputBarFlag
p6531
I0
sVChatRoomId
p6532
I0
sVEncryChatRoomId
p6533
g52
sVAttrStatus
p6534
I0
sVStatues
p6535
I0
stp6536
Rp6537
I1
bag34
(g4617
g39
(dp6538
VUserName
p6539
V@db139b1a727573eda403d60be6fea1e0
p6540
sVCity
p6541
V\u6d77\u6dc0
p6542
sVSnsFlag
p6543
I0
sVDisplayName
p6544
g52
sVUniFriend
p6545
I0
sVMemberCount
p6546
I0
sVOwnerUin
p6547
I0
sVMemberList
p6548
g50
sVAlias
p6549
Vdocin2013
p6550
sVPYQuanPin
p6551
Vdoudingwendang
p6552
sVSignature
p6553
V\u4eb2\uff0c\u8fd9\u662f\u8c46\u4e01\u7f51\u5b98\u65b9\u670d\u52a1\u53f7\uff0c\u5173\u6ce8\u5373\u53ef\u5b9e\u65f6\u6536\u53d6\u8c46\u4e01\u7f51\u6700\u65b0\u901a\u77e5\u4e0e\u5ba2\u670d\u56de\u590d\uff0c\u66f4\u53ef\u514d\u8d39\u6d4f\u89c8\u8c46\u4e01\u7f51\u8fd12\u4ebf\u6587\u6863\u8d44\u6599\u3002\u626b\u7801\u652f\u4ed8\u5373\u5c06\u5f00\u542f\uff0c\u656c\u8bf7\u5173\u6ce8\uff01
p6554
sVRemarkPYInitial
p6555
g52
sVContactFlag
p6556
I1
sVUin
p6557
I0
sVNickName
p6558
V\u8c46\u4e01\u6587\u6863
p6559
sVAppAccountFlag
p6560
I0
sVVerifyFlag
p6561
I24
sVRemarkPYQuanPin
p6562
g52
sVHeadImgUrl
p6563
V/cgi-bin/mmwebwx-bin/webwxgeticon?seq=657432267&username=@db139b1a727573eda403d60be6fea1e0&skey=@crypt_915d192c_859cf8b7c20c6eeafe0c834301ece725
p6564
sVKeyWord
p6565
Vgh_
p6566
sVProvince
p6567
V\u5317\u4eac
p6568
sVPYInitial
p6569
VDDWD
p6570
sVRemarkName
p6571
g52
sVIsOwner
p6572
I0
sVSex
p6573
I0
sVStarFriend
p6574
I0
sVHideInputBarFlag
p6575
I0
sVChatRoomId
p6576
I0
sVEncryChatRoomId
p6577
g52
sVAttrStatus
p6578
I0
sVStatues
p6579
I0
stp6580
Rp6581
I1
bag34
(g4617
g39
(dp6582
VUserName
p6583
V@24cd373164b70e2a2eee457805cce380
p6584
sVCity
p6585
V\u6d77\u6dc0
p6586
sVSnsFlag
p6587
I0
sVDisplayName
p6588
g52
sVUniFriend
p6589
I0
sVMemberCount
p6590
I0
sVOwnerUin
p6591
I0
sVMemberList
p6592
g50
sVAlias
p6593
Vxiaowuyeyuanthu
p6594
sVPYQuanPin
p6595
Vxiaowuyeyuan
p6596
sVSignature
p6597
V\u6e05\u534e\u56ed\u5185\u4e13\u804c\u6df1\u5ea6\u89c2\u5bdf\uff0c\u9760\u8c31\u5730\u70ed\u7231\u4e2d\u56fd
p6598
sVRemarkPYInitial
p6599
g52
sVContactFlag
p6600
I1
sVUin
p6601
I0
sVNickName
p6602
V\u5c0f\u4e94\u7237\u56ed
p6603
sVAppAccountFlag
p6604
I0
sVVerifyFlag
p6605
I8
sVRemarkPYQuanPin
p6606
g52
sVHeadImgUrl
p6607
V/cgi-bin/mmwebwx-bin/webwxgeticon?seq=635100902&username=@24cd373164b70e2a2eee457805cce380&skey=@crypt_915d192c_859cf8b7c20c6eeafe0c834301ece725
p6608
sVKeyWord
p6609
Vgh_
p6610
sVProvince
p6611
V\u5317\u4eac
p6612
sVPYInitial
p6613
VXWYY
p6614
sVRemarkName
p6615
g52
sVIsOwner
p6616
I0
sVSex
p6617
I0
sVStarFriend
p6618
I0
sVHideInputBarFlag
p6619
I0
sVChatRoomId
p6620
I0
sVEncryChatRoomId
p6621
g52
sVAttrStatus
p6622
I0
sVStatues
p6623
I0
stp6624
Rp6625
I1
bag34
(g4617
g39
(dp6626
VUserName
p6627
V@e67405a33950598c1cee481e25caf819
p6628
sVCity
p6629
V\u6d77\u6dc0
p6630
sVSnsFlag
p6631
I0
sVDisplayName
p6632
g52
sVUniFriend
p6633
I0
sVMemberCount
p6634
I0
sVOwnerUin
p6635
I0
sVMemberList
p6636
g50
sVAlias
p6637
Vbjhaitaolvyou
p6638
sVPYQuanPin
p6639
Vhaitaolvyouwang
p6640
sVSignature
p6641
V\u4eb2\uff01\u6d77\u6d9b\u65c5\u6e38\u4e13\u4e1a\u7ecf\u8425\u65e5\u672c\u65c5\u6e38\u3001\u97e9\u56fd\u65c5\u6e38\u3001\u67ec\u57d4\u5be8\u65c5\u6e38\u3001\u65b0\u897f\u5170\u65c5\u6e38\u3001\u6d77\u5c9b\u6e38\u7b49\u5883\u5916\u65c5\u6e38\u3002\u5728\u8fd9\u91cc\u60a8\u53ef\u4ee5\u6536\u5230\u65e5\u672c\u4e1c\u4eac\u3001\u5927\u962a\u3001\u4eac\u90fd\u3001\u5317\u6d77\u9053\u3001\u51b2\u7ef3\u3001\u97e9\u56fd\u9996\u5c14\u7684\u65c5\u6e38\u4fe1\u606f\u3001\u7279\u60e0\u4ef7\u683c\u3001\u8fd8\u6709\u514d\u8d39\u540d\u989d\u4e0d\u5b9a\u671f\u53d1\u9001\uff01\u5feb\u70b9\u5173\u6ce8\u5427\uff01
p6642
sVRemarkPYInitial
p6643
g52
sVContactFlag
p6644
I1
sVUin
p6645
I0
sVNickName
p6646
V\u6d77\u6d9b\u65c5\u6e38\u7f51
p6647
sVAppAccountFlag
p6648
I0
sVVerifyFlag
p6649
I24
sVRemarkPYQuanPin
p6650
g52
sVHeadImgUrl
p6651
V/cgi-bin/mmwebwx-bin/webwxgeticon?seq=648062962&username=@e67405a33950598c1cee481e25caf819&skey=@crypt_915d192c_859cf8b7c20c6eeafe0c834301ece725
p6652
sVKeyWord
p6653
Vgh_
p6654
sVProvince
p6655
V\u5317\u4eac
p6656
sVPYInitial
p6657
VHTLYW
p6658
sVRemarkName
p6659
g52
sVIsOwner
p6660
I0
sVSex
p6661
I0
sVStarFriend
p6662
I0
sVHideInputBarFlag
p6663
I0
sVChatRoomId
p6664
I0
sVEncryChatRoomId
p6665
g52
sVAttrStatus
p6666
I0
sVStatues
p6667
I0
stp6668
Rp6669
I1
bag34
(g4617
g39
(dp6670
VUserName
p6671
V@c8c828c9f42ae28f4bfe1745ef671607
p6672
sVCity
p6673
g52
sVSnsFlag
p6674
I0
sVDisplayName
p6675
g52
sVUniFriend
p6676
I0
sVMemberCount
p6677
I0
sVOwnerUin
p6678
I0
sVMemberList
p6679
g50
sVAlias
p6680
g52
sVPYQuanPin
p6681
Vwxidrxdx39gyze7c11dejiekouceshihao
p6682
sVSignature
p6683
g52
sVRemarkPYInitial
p6684
g52
sVContactFlag
p6685
I1
sVUin
p6686
I0
sVNickName
p6687
Vwxid_rxdx39gyze7c11\u7684\u63a5\u53e3\u6d4b\u8bd5\u53f7
p6688
sVAppAccountFlag
p6689
I0
sVVerifyFlag
p6690
I8
sVRemarkPYQuanPin
p6691
g52
sVHeadImgUrl
p6692
V/cgi-bin/mmwebwx-bin/webwxgeticon?seq=657441194&username=@c8c828c9f42ae28f4bfe1745ef671607&skey=@crypt_915d192c_859cf8b7c20c6eeafe0c834301ece725
p6693
sVKeyWord
p6694
Vgh_
p6695
sVProvince
p6696
g52
sVPYInitial
p6697
VWXIDRXDX39GYZE7C11DJKCSH
p6698
sVRemarkName
p6699
g52
sVIsOwner
p6700
I0
sVSex
p6701
I0
sVStarFriend
p6702
I0
sVHideInputBarFlag
p6703
I0
sVChatRoomId
p6704
I0
sVEncryChatRoomId
p6705
g52
sVAttrStatus
p6706
I0
sVStatues
p6707
I0
stp6708
Rp6709
I1
bag34
(g4617
g39
(dp6710
VUserName
p6711
V@6189b2810536e17ded85d2b45decc7d7
p6712
sVCity
p6713
V\u4e1c\u57ce
p6714
sVSnsFlag
p6715
I0
sVDisplayName
p6716
g52
sVUniFriend
p6717
I0
sVMemberCount
p6718
I0
sVOwnerUin
p6719
I0
sVMemberList
p6720
g50
sVAlias
p6721
Vnuru2015
p6722
sVPYQuanPin
p6723
Vnuru
p6724
sVSignature
p6725
V\u4ee5\u63a8\u9001\u76f4\u64ad\u901a\u77e5\u4e3a\u4e3b\uff0c\u611f\u8c22\u5173\u6ce8\uff01
p6726
sVRemarkPYInitial
p6727
g52
sVContactFlag
p6728
I1
sVUin
p6729
I0
sVNickName
p6730
Vnuru
p6731
sVAppAccountFlag
p6732
I0
sVVerifyFlag
p6733
I8
sVRemarkPYQuanPin
p6734
g52
sVHeadImgUrl
p6735
V/cgi-bin/mmwebwx-bin/webwxgeticon?seq=657434447&username=@6189b2810536e17ded85d2b45decc7d7&skey=@crypt_915d192c_859cf8b7c20c6eeafe0c834301ece725
p6736
sVKeyWord
p6737
Vgh_
p6738
sVProvince
p6739
V\u5317\u4eac
p6740
sVPYInitial
p6741
VNURU
p6742
sVRemarkName
p6743
g52
sVIsOwner
p6744
I0
sVSex
p6745
I0
sVStarFriend
p6746
I0
sVHideInputBarFlag
p6747
I0
sVChatRoomId
p6748
I0
sVEncryChatRoomId
p6749
g52
sVAttrStatus
p6750
I0
sVStatues
p6751
I0
stp6752
Rp6753
I1
bag34
(g4617
g39
(dp6754
VUserName
p6755
V@604979da7013c293bbc2c86d5774defb
p6756
sVCity
p6757
V\u77f3\u666f\u5c71
p6758
sVSnsFlag
p6759
I0
sVDisplayName
p6760
g52
sVUniFriend
p6761
I0
sVMemberCount
p6762
I0
sVOwnerUin
p6763
I0
sVMemberList
p6764
g50
sVAlias
p6765
Vwxonline-jimuwang
p6766
sVPYQuanPin
p6767
Vwuxingzaixianjimuwang
p6768
sVSignature
p6769
V\u4e94\u661f\u5728\u7ebf\u79ef\u6728\u7f51\u5b98\u65b9\u516c\u4f17\u8d26\u53f7\u3002\u4e94\u661f\u5728\u7ebf\u79ef\u6728\u7f51\uff0c\u60a8\u8eab\u8fb9\u7684\u5c55\u4e1a\u5229\u5668\u3002
p6770
sVRemarkPYInitial
p6771
g52
sVContactFlag
p6772
I1
sVUin
p6773
I0
sVNickName
p6774
V\u4e94\u661f\u5728\u7ebf\u79ef\u6728\u7f51
p6775
sVAppAccountFlag
p6776
I0
sVVerifyFlag
p6777
I24
sVRemarkPYQuanPin
p6778
g52
sVHeadImgUrl
p6779
V/cgi-bin/mmwebwx-bin/webwxgeticon?seq=657441696&username=@604979da7013c293bbc2c86d5774defb&skey=@crypt_915d192c_859cf8b7c20c6eeafe0c834301ece725
p6780
sVKeyWord
p6781
Vgh_
p6782
sVProvince
p6783
V\u5317\u4eac
p6784
sVPYInitial
p6785
VWXZXJMW
p6786
sVRemarkName
p6787
g52
sVIsOwner
p6788
I0
sVSex
p6789
I0
sVStarFriend
p6790
I0
sVHideInputBarFlag
p6791
I0
sVChatRoomId
p6792
I0
sVEncryChatRoomId
p6793
g52
sVAttrStatus
p6794
I0
sVStatues
p6795
I0
stp6796
Rp6797
I1
bag34
(g4617
g39
(dp6798
VUserName
p6799
V@c1f1f654bcba0c5183c4fc85bb807431
p6800
sVCity
p6801
V\u6d77\u6dc0
p6802
sVSnsFlag
p6803
I0
sVDisplayName
p6804
g52
sVUniFriend
p6805
I0
sVMemberCount
p6806
I0
sVOwnerUin
p6807
I0
sVMemberList
p6808
g50
sVAlias
p6809
Vxiaoice-ms
p6810
sVPYQuanPin
p6811
Vxiaobing
p6812
sVSignature
p6813
V\u6211\u662f\u4eba\u5de5\u667a\u80fd\u5fae\u8f6f\u5c0f\u51b0~~
p6814
sVRemarkPYInitial
p6815
g52
sVContactFlag
p6816
I3
sVUin
p6817
I0
sVNickName
p6818
V\u5c0f\u51b0
p6819
sVAppAccountFlag
p6820
I0
sVVerifyFlag
p6821
I24
sVRemarkPYQuanPin
p6822
g52
sVHeadImgUrl
p6823
V/cgi-bin/mmwebwx-bin/webwxgeticon?seq=657434959&username=@c1f1f654bcba0c5183c4fc85bb807431&skey=@crypt_915d192c_859cf8b7c20c6eeafe0c834301ece725
p6824
sVKeyWord
p6825
Vgh_
p6826
sVProvince
p6827
V\u5317\u4eac
p6828
sVPYInitial
p6829
VXB
p6830
sVRemarkName
p6831
g52
sVIsOwner
p6832
I0
sVSex
p6833
I0
sVStarFriend
p6834
I0
sVHideInputBarFlag
p6835
I0
sVChatRoomId
p6836
I0
sVEncryChatRoomId
p6837
g52
sVAttrStatus
p6838
I0
sVStatues
p6839
I0
stp6840
Rp6841
I1
bag34
(g4617
g39
(dp6842
VUserName
p6843
V@7627372c1ff91177fc04ce1fe03ab321
p6844
sVCity
p6845
V\u5f90\u6c47
p6846
sVSnsFlag
p6847
I0
sVDisplayName
p6848
g52
sVUniFriend
p6849
I0
sVMemberCount
p6850
I0
sVOwnerUin
p6851
I0
sVMemberList
p6852
g50
sVAlias
p6853
Vxhsfwh
p6854
sVPYQuanPin
p6855
Vxiaohongshufuwuhao
p6856
sVSignature
p6857
V\u5168\u7403\u597d\u8d27\u6bcf\u5929\u65e9\u666810:00\u798f\u5229\u793e\u51c6\u65f6\u66f4\u65b0~\u624b\u5feb\u6709\u624b\u6162\u65e0~\u4efb\u4f55\u95ee\u9898\u90fd\u53ef\u4ee5\u5728\u8ba2\u5355\u9875\u9762\u7559\u8a00\u7ed9\u85af\u961f\u957f\u54df~\u4e48\u4e48\u54d2
p6858
sVRemarkPYInitial
p6859
g52
sVContactFlag
p6860
I1
sVUin
p6861
I0
sVNickName
p6862
V\u5c0f\u7ea2\u4e66\u670d\u52a1\u53f7
p6863
sVAppAccountFlag
p6864
I0
sVVerifyFlag
p6865
I24
sVRemarkPYQuanPin
p6866
g52
sVHeadImgUrl
p6867
V/cgi-bin/mmwebwx-bin/webwxgeticon?seq=663586014&username=@7627372c1ff91177fc04ce1fe03ab321&skey=@crypt_915d192c_859cf8b7c20c6eeafe0c834301ece725
p6868
sVKeyWord
p6869
Vgh_
p6870
sVProvince
p6871
V\u4e0a\u6d77
p6872
sVPYInitial
p6873
VXHSFWH
p6874
sVRemarkName
p6875
g52
sVIsOwner
p6876
I0
sVSex
p6877
I0
sVStarFriend
p6878
I0
sVHideInputBarFlag
p6879
I0
sVChatRoomId
p6880
I0
sVEncryChatRoomId
p6881
g52
sVAttrStatus
p6882
I0
sVStatues
p6883
I0
stp6884
Rp6885
I1
bag34
(g4617
g39
(dp6886
VUserName
p6887
V@16fab64bc92b5565796b3dd67e40d5aa
p6888
sVCity
p6889
V\u6d77\u6dc0
p6890
sVSnsFlag
p6891
I0
sVDisplayName
p6892
g52
sVUniFriend
p6893
I0
sVMemberCount
p6894
I0
sVOwnerUin
p6895
I0
sVMemberList
p6896
g50
sVAlias
p6897
g52
sVPYQuanPin
p6898
Vyuketang
p6899
sVSignature
p6900
V\u96e8\u8bfe\u5802\uff0c\u514d\u8d39\u7684\u667a\u6167\u6559\u5b66\u89e3\u51b3\u65b9\u6848
p6901
sVRemarkPYInitial
p6902
g52
sVContactFlag
p6903
I1
sVUin
p6904
I0
sVNickName
p6905
V\u96e8\u8bfe\u5802
p6906
sVAppAccountFlag
p6907
I0
sVVerifyFlag
p6908
I24
sVRemarkPYQuanPin
p6909
g52
sVHeadImgUrl
p6910
V/cgi-bin/mmwebwx-bin/webwxgeticon?seq=663593158&username=@16fab64bc92b5565796b3dd67e40d5aa&skey=@crypt_915d192c_859cf8b7c20c6eeafe0c834301ece725
p6911
sVKeyWord
p6912
Vgh_
p6913
sVProvince
p6914
V\u5317\u4eac
p6915
sVPYInitial
p6916
VYKT
p6917
sVRemarkName
p6918
g52
sVIsOwner
p6919
I0
sVSex
p6920
I0
sVStarFriend
p6921
I0
sVHideInputBarFlag
p6922
I0
sVChatRoomId
p6923
I0
sVEncryChatRoomId
p6924
g52
sVAttrStatus
p6925
I0
sVStatues
p6926
I0
stp6927
Rp6928
I1
bag34
(g4617
g39
(dp6929
VUserName
p6930
V@a3fb5ba2e0e96623750bc88481c84e31
p6931
sVCity
p6932
V\u6d77\u6dc0
p6933
sVSnsFlag
p6934
I0
sVDisplayName
p6935
g52
sVUniFriend
p6936
I0
sVMemberCount
p6937
I0
sVOwnerUin
p6938
I0
sVMemberList
p6939
g50
sVAlias
p6940
VTHU-myhome
p6941
sVPYQuanPin
p6942
Vqinghuajiayuanwang
p6943
sVSignature
p6944
V\u5728\u5b66\u751f\u793e\u533a\u201c\u6211\u4eec\u7684\u5bb6\u56ed\u201d\u670d\u52a1\u7f51\u7ad9\u57fa\u7840\u4e0a\uff0c\u4f9d\u6258\u5fae\u4fe1\u5e73\u53f0\u4e3a\u6821\u5185\u5b66\u751f\u63d0\u4f9b\u793e\u533a\u751f\u6d3b\u670d\u52a1\u3002\u4f8b\u5982\u7f51\u7edc\u62a5\u4fee\u3001\u81ea\u4e60\u6559\u5ba4\u67e5\u627e\u3001\u90ae\u6761\u901a\u77e5\u3001\u65b0\u751f\u5b89\u5168\u6559\u80b2\u7b49\u3002
p6945
sVRemarkPYInitial
p6946
g52
sVContactFlag
p6947
I1
sVUin
p6948
I0
sVNickName
p6949
V\u6e05\u534e\u5bb6\u56ed\u7f51
p6950
sVAppAccountFlag
p6951
I0
sVVerifyFlag
p6952
I24
sVRemarkPYQuanPin
p6953
g52
sVHeadImgUrl
p6954
V/cgi-bin/mmwebwx-bin/webwxgeticon?seq=663594787&username=@a3fb5ba2e0e96623750bc88481c84e31&skey=@crypt_915d192c_859cf8b7c20c6eeafe0c834301ece725
p6955
sVKeyWord
p6956
Vgh_
p6957
sVProvince
p6958
V\u5317\u4eac
p6959
sVPYInitial
p6960
VQHJYW
p6961
sVRemarkName
p6962
g52
sVIsOwner
p6963
I0
sVSex
p6964
I0
sVStarFriend
p6965
I0
sVHideInputBarFlag
p6966
I0
sVChatRoomId
p6967
I0
sVEncryChatRoomId
p6968
g52
sVAttrStatus
p6969
I0
sVStatues
p6970
I0
stp6971
Rp6972
I1
bag34
(g4617
g39
(dp6973
VUserName
p6974
V@0400ddb15acbb3eb37319419df03bb32
p6975
sVCity
p6976
g52
sVSnsFlag
p6977
I0
sVDisplayName
p6978
g52
sVUniFriend
p6979
I0
sVMemberCount
p6980
I0
sVOwnerUin
p6981
I0
sVMemberList
p6982
g50
sVAlias
p6983
g52
sVPYQuanPin
p6984
Vmaidanglao
p6985
sVSignature
p6986
V\u65b0\u54c1\u63a8\u8350\u3001\u6700\u65b0\u4f18\u60e0\u5238\u53ca\u9644\u8fd1\u95e8\u5e97\u63a8\u8350\u670d\u52a1
p6987
sVRemarkPYInitial
p6988
g52
sVContactFlag
p6989
I1
sVUin
p6990
I0
sVNickName
p6991
V\u9ea6\u5f53\u52b3
p6992
sVAppAccountFlag
p6993
I0
sVVerifyFlag
p6994
I24
sVRemarkPYQuanPin
p6995
g52
sVHeadImgUrl
p6996
V/cgi-bin/mmwebwx-bin/webwxgeticon?seq=663595577&username=@0400ddb15acbb3eb37319419df03bb32&skey=@crypt_915d192c_859cf8b7c20c6eeafe0c834301ece725
p6997
sVKeyWord
p6998
Vmcd
p6999
sVProvince
p7000
g52
sVPYInitial
p7001
VMDL
p7002
sVRemarkName
p7003
g52
sVIsOwner
p7004
I0
sVSex
p7005
I0
sVStarFriend
p7006
I0
sVHideInputBarFlag
p7007
I0
sVChatRoomId
p7008
I0
sVEncryChatRoomId
p7009
g52
sVAttrStatus
p7010
I0
sVStatues
p7011
I0
stp7012
Rp7013
I1
bag34
(g4617
g39
(dp7014
VUserName
p7015
V@cf944d6d2c1c4bc211dcf5c48fe15757
p7016
sVCity
p7017
V\u897f\u57ce
p7018
sVSnsFlag
p7019
I0
sVDisplayName
p7020
g52
sVUniFriend
p7021
I0
sVMemberCount
p7022
I0
sVOwnerUin
p7023
I0
sVMemberList
p7024
g50
sVAlias
p7025
Vkadoumtg
p7026
sVPYQuanPin
p7027
Vkadou
p7028
sVSignature
p7029
V\u4e07\u667a\u724c\u4fe1\u606f\u53d1\u5e03\uff0c\u5728\u7ebf\u67e5\u8be2
p7030
sVRemarkPYInitial
p7031
g52
sVContactFlag
p7032
I1
sVUin
p7033
I0
sVNickName
p7034
V\u5361\u8c46
p7035
sVAppAccountFlag
p7036
I0
sVVerifyFlag
p7037
I8
sVRemarkPYQuanPin
p7038
g52
sVHeadImgUrl
p7039
V/cgi-bin/mmwebwx-bin/webwxgeticon?seq=663596154&username=@cf944d6d2c1c4bc211dcf5c48fe15757&skey=@crypt_915d192c_859cf8b7c20c6eeafe0c834301ece725
p7040
sVKeyWord
p7041
Vgh_
p7042
sVProvince
p7043
V\u5317\u4eac
p7044
sVPYInitial
p7045
VKD
p7046
sVRemarkName
p7047
g52
sVIsOwner
p7048
I0
sVSex
p7049
I0
sVStarFriend
p7050
I0
sVHideInputBarFlag
p7051
I0
sVChatRoomId
p7052
I0
sVEncryChatRoomId
p7053
g52
sVAttrStatus
p7054
I0
sVStatues
p7055
I0
stp7056
Rp7057
I1
bag34
(g4617
g39
(dp7058
VUserName
p7059
V@43625df987fbc1c8d1056ed19279e639
p7060
sVCity
p7061
V\u5e7f\u5dde
p7062
sVSnsFlag
p7063
I0
sVDisplayName
p7064
g52
sVUniFriend
p7065
I0
sVMemberCount
p7066
I0
sVOwnerUin
p7067
I0
sVMemberList
p7068
g50
sVAlias
p7069
g52
sVPYQuanPin
p7070
Vzhangshangtielu
p7071
sVSignature
p7072
V\u63d0\u4f9b\u706b\u8f66\u94c1\u8def\u5728\u7ebf\u8ba2\u9910\u670d\u52a1\u3002
p7073
sVRemarkPYInitial
p7074
g52
sVContactFlag
p7075
I1
sVUin
p7076
I0
sVNickName
p7077
V\u638c\u4e0a\u94c1\u8def
p7078
sVAppAccountFlag
p7079
I0
sVVerifyFlag
p7080
I24
sVRemarkPYQuanPin
p7081
g52
sVHeadImgUrl
p7082
V/cgi-bin/mmwebwx-bin/webwxgeticon?seq=663597272&username=@43625df987fbc1c8d1056ed19279e639&skey=@crypt_915d192c_859cf8b7c20c6eeafe0c834301ece725
p7083
sVKeyWord
p7084
Vgh_
p7085
sVProvince
p7086
V\u5e7f\u4e1c
p7087
sVPYInitial
p7088
VZSTL
p7089
sVRemarkName
p7090
g52
sVIsOwner
p7091
I0
sVSex
p7092
I0
sVStarFriend
p7093
I0
sVHideInputBarFlag
p7094
I0
sVChatRoomId
p7095
I0
sVEncryChatRoomId
p7096
g52
sVAttrStatus
p7097
I0
sVStatues
p7098
I0
stp7099
Rp7100
I1
batp7101
Rp7102
I1
bssS'loginInfo'
p7103
(dp7104
S'SyncKey'
p7105
(dp7106
VCount
p7107
I4
sVList
p7108
(lp7109
(dp7110
VVal
p7111
I663597834
sVKey
p7112
I1
sa(dp7113
VVal
p7114
I663599359
sVKey
p7115
I2
sa(dp7116
VVal
p7117
I663599329
sVKey
p7118
I3
sa(dp7119
VVal
p7120
I1492268583
sVKey
p7121
I1000
sassS'syncUrl'
p7122
S'https://webpush.wx2.qq.com/cgi-bin/mmwebwx-bin'
p7123
sS'skey'
p7124
V@crypt_915d192c_859cf8b7c20c6eeafe0c834301ece725
p7125
sS'wxuin'
p7126
V1463552906
p7127
sS'synckey'
p7128
S'1_663597834|2_663599359|3_663599329|1000_1492268583'
p7129
sS'url'
p7130
Vhttps://wx2.qq.com/cgi-bin/mmwebwx-bin
p7131
sS'pass_ticket'
p7132
VqGjESb4ftYcWZxRrLNHf45tN5tXJWudxhamgJMNignnMx1LSafVHpv%2Bw5fQDOvxB
p7133
sS'wxsid'
p7134
VlMgEdJsJ+ACcSCQm
p7135
sS'User'
p7136
g34
(g38
g39
(dp7137
g41
g31
sg42
g43
sg44
g43
sg45
I0
sg47
g50
sg51
g52
sg53
g52
sg78
I1
sg55
I0
sg56
I0
sg57
g43
sg58
g43
sg59
g52
sg60
g52
sg61
I0
sg62
I0
sg63
I1
sg64
g43
sg65
I0
sg68
I3
sg66
I1
sg67
I0
sg46
I0
sg69
g43
sg70
g71
sg72
I0
sg73
g74
sg75
g52
sg76
g77
sg54
I1463552906
sg79
I0
sg80
I0
stp7138
Rp7139
I1
bsS'InviteStartCount'
p7140
I40
sS'fileUrl'
p7141
S'https://file.wx2.qq.com/cgi-bin/mmwebwx-bin'
p7142
sS'BaseRequest'
p7143
(dp7144
g54
g7127
sS'Skey'
p7145
g7125
sS'DeviceID'
p7146
g7133
sS'Sid'
p7147
g7135
ssS'deviceid'
p7148
S'e064934630321089'
p7149
ss.